#[1]   same.asm
    5           0001      MAIN_BANK       .equ    1
    6                     
#[2]   pce.asm
    7                             .include "pce.asm"        
    1                     ;       ÈÆ´ÔºÅÈÆ´ÔºÅÈÆ´ÔºÅ(Fire Shark) ÂãùÊâãÁßªÊ§çÁâà for PCEngine
    2                     ;       2020/12/09
    3                     ;
    4                     ;       common definitions
    5                     ;
    6                     ;       VDC
    7                     ;
    8           0000      VdcPort         .equ    $0000
    9           0000      VdcReg          .equ    VdcPort
   10           0000      VdcStatus       .equ    VdcPort
   11           0002      VdcData         .equ    VdcPort+2
   12           0002      VdcDataL        .equ    VdcData
   13           0003      VdcDataH        .equ    VdcData+1
   14                     ;
   15                     ;       VCE
   16                     ;
   17           0400      VcePort         .equ    $0400
   18           0400      VceCtrl         .equ    VcePort
   19           0402      VceIndex        .equ    VcePort+2
   20           0402      VceIndexL       .equ    VceIndex
   21           0403      VceIndexH       .equ    VceIndex+1
   22           0404      VceData         .equ    VcePort+4
   23           0404      VceDataL        .equ    VceData
   24           0405      VceDataH        .equ    VceData+1
   25                     ;
   26                     ;       PSG
   27                     ;
   28           0800      PsgPort         .equ    $0800
   29           0800      PsgChannel      .equ    PsgPort
   30           0801      PsgMainVol      .equ    PsgPort+1
   31           0802      PsgFreqL        .equ    PsgPort+2
   32           0803      PsgFreqH        .equ    PsgPort+3
   33           0804      PsgCtrl         .equ    PsgPort+4
   34           0805      PsgChVol        .equ    PsgPort+5
   35           0806      PsgWave         .equ    PsgPort+6
   36           0807      PsgNoise        .equ    PsgPort+7
   37           0808      PsgLfoFreq      .equ    PsgPort+8
   38           0809      PsgLfoCtrl      .equ    PsgPort+9
   39                     ;
   40                     ;       timer
   41                     ;
   42           0C00      TimerPort       .equ    $0c00
   43           0C00      TimerCounter    .equ    TimerPort
   44           0C01      TimerCtrl       .equ    TimerPort+1
   45                     ;
   46                     ;       interrupt
   47                     ;
   48           1402      IntCtrlPort     .equ    $1402
   49           1402      IntCtrlMask     .equ    IntCtrlPort
   50           1403      IntCtrlState    .equ    IntCtrlPort+1
   51                     ;
   52                     ;       control pad
   53                     ;
   54           1000      PadPort         .equ    $1000
   55                     
#[1]   same.asm
#[2]   bank0.asm
    8                             .include "bank0.asm"
    1                     ;       ÈÆ´ÔºÅÈÆ´ÔºÅÈÆ´ÔºÅ(Fire Shark) ÂãùÊâãÁßªÊ§çÁâà for PCEngine
    2                     ;       2020/12/09
    3                     ;
    4                     ;       „Éê„É≥„ÇØÔºê„Å´ÈÖçÁΩÆ„Åô„Åπ„Åç„Ç≥„Éº„Éâ
    5                     ;       Ââ≤„ÇäËæº„Åø„Éô„ÇØ„Çø„ÉªÂâ≤„ÇäËæº„Åø„Éè„É≥„Éâ„É©ÔºàRESETÔºâ
    6                     ;       „Ç¢„Éâ„É¨„Çπ„ÅØ $e000-$ffff
    7                     
    8           0000      BANK0_BANK .equ 0
    9                     
   10           E000              .code
   11           0000              .bank BANK0_BANK
   12                     ;
   13                     ;       interrupt vectors
   14                     ;
   15           FFF6              .org $fff6
   16  00:FFF6  00 E0             .dw     interrupt_dummy         ;$fff6 IRQ2/BRK
   17  00:FFF8  00 E0             .dw     interrupt_dummy         ;$fff8 IRQ1
   18  00:FFFA  00 E0             .dw     interrupt_dummy         ;$fffa timer
   19  00:FFFC  00 E0             .dw     interrupt_dummy         ;$fffc NMI
   20  00:FFFE  01 E0             .dw     interrupt_reset         ;$fffe RESET
   21                     ;
   22                     ;       interrupt handlers
   23                     ;
   24           E000              .org $e000
   25                     ;
   26                     ;       dummy handler
   27                     ;
   28  00:E000            interrupt_dummy:
   29  00:E000  40                rti
   30                     ;
   31                     ;       RESET interrupt handler
   32                     ;
   33  00:E001            interrupt_reset:
   34  00:E001  78                sei                             ; disable interrupt
   35  00:E002  D4                csh                             ; high speed mode
   36  00:E003  D8                cld                             ; 
   37                     
   38  00:E004  A2 FF             ldx     #$ff                    ; initialize stack pointer
   39  00:E006  9A                txs
   40                     
   41  00:E007  A9 FF             lda     #$ff                    ; map i/o bank
   42  00:E009  53 01             tam0
   43  00:E00B  A9 F8             lda     #$f8                    ; map ram bank
   44  00:E00D  53 02             tam1
   45                     
   46  00:E00F  9C 00 20          stz     $2000                   ; clear ram
   47  00:E012  73 00 20          tii     $2000,$2001,$1fff
       00:E015  01 20 FF  
       00:E018  1F        
   48                             
   49  00:E019  9C 01 0C          stz     TimerCtrl               ; stop timer
   50                     
   51  00:E01C  20 3B E0          jsr     initPsg
   52  00:E01F  20 5F E0          jsr     initVdc
   53  00:E022  20 B7 E0          jsr     initPad
   54                     
   55  00:E025  9C 02 14          stz     IntCtrlMask             ; disable interrupt
   56                     
   57  00:E028  A9 05             lda     #5
   58  00:E02A  8D 00 00          sta     VdcReg
   59  00:E02D  A9 C8             lda     #$c8                    ; enable sprite & bg / disable interrupt
   60  00:E02F  8D 02 00          sta     VdcDataL
   61  00:E032  23 00             st2     #0                      ; auto increment +1
   62                     
   63                     ;       jump to main
   64  00:E034  A9 01             lda     #BANK(main)
   65  00:E036  53 40             tam     #PAGE(main)
   66  00:E038  4C 07 C0          jmp     main
   67                     ;
   68                     ;       initialize psg
   69                     ;
   70  00:E03B            initPsg:
   71  00:E03B  9C 01 08          stz     PsgMainVol
   72  00:E03E  9C 09 08          stz     PsgLfoCtrl
   73                     
   74                     ;       disable all channels
   75  00:E041  A9 05             lda     #5
   76  00:E043  8D 00 08  .loop:  sta     PsgChannel
   77  00:E046  9C 01 08          stz     PsgMainVol
   78  00:E049  9C 04 08          stz     PsgCtrl
   79  00:E04C  3A                dec     a
   80  00:E04D  10 F4             bpl     .loop
   81                     
   82                     ;       disable noise(channel 4/5)
   83  00:E04F  A9 04             lda     #4
   84  00:E051  8D 00 08          sta     PsgChannel
   85  00:E054  9C 07 08          stz     PsgNoise
   86  00:E057  1A                inc     a
   87  00:E058  8D 00 08          sta     PsgChannel
   88  00:E05B  9C 07 08          stz     PsgNoise
   89                     
   90  00:E05E  60                rts
   91                     ;
   92                     ;       initialize VDC,VCE
   93                     ;       TODO: Ëß£ÂÉèÂ∫¶„ÅåÊ®™336„Éâ„ÉÉ„ÉàÈôêÂÆö„ÅÆË®≠ÂÆö„Å´„Å™„Å£„Å¶„ÅÑ„Çã
   94                     
   95                     ; ----
   96                     ; HSR(xres)
   97                     ; ----
   98                     ; macros to calculate the value of the HSR VDC register
   99                     ; ----
  100                     ; IN :  xres, horizontal screen resolution
  101                     ; ----
  102                     
  103                     HSR     .macro
  104                              .if (\1 <= 272)
  105                               ; low res
  106                               .db $02
  107                               .db (18 - (((\1 / 8) - 1) / 2))
  108                              .else
  109                               ; high res
  110                               .db $03
  111                               .db (24 - (((\1 / 8) - 1) / 2))
  112                              .endif
  113                             .endm
  114                     
  115                     
  116                     ; ----
  117                     ; HDR(xres)
  118                     ; ----
  119                     ; macros to calculate the value of the HDR VDC register
  120                     ; ----
  121                     ; IN :  xres, horizontal screen resolution
  122                     ; ----
  123                     
  124                     HDR     .macro
  125                              .db ((\1 / 8) - 1)
  126                              .if (\1 <= 272)
  127                               ; low res
  128                               .db (38 - ((18 - (((\1 / 8) - 1) / 2)) + (\1 / 8)))
  129                              .else
  130                               ; high res
  131                               .db (54 - ((24 - (((\1 / 8) - 1) / 2)) + (\1 / 8)))
  132                              .endif
  133                             .endm
  134                     
  135                     
  136  00:E05F            initVdc:
  137                     ;       set VDC registers from .table
  138  00:E05F  82                clx
  139  00:E060            .loop:
  140  00:E060  BD 92 E0          lda     .table,x
  141  00:E063  F0 14             beq     .endloop
  142  00:E065  8D 00 00          sta     VdcReg
  143  00:E068  E8                inx
  144  00:E069  BD 92 E0          lda     .table,x
  145  00:E06C  8D 02 00          sta     VdcDataL
  146  00:E06F  E8                inx
  147  00:E070  BD 92 E0          lda     .table,x
  148  00:E073  8D 03 00          sta     VdcDataH
  149  00:E076  E8                inx
  150  00:E077  80 E7             bra     .loop
  151  00:E079            .endloop:
  152                     
  153                     ;       init vce
  154                     ;        lda     #1              ;horizontal resolution >272!!!!!!
  155                     ;        sta     VceCtrl
  156  00:E079  9C 00 04          stz     VceCtrl
  157                     
  158                     ;       clear vram
  159  00:E07C  03 00             st0     #0
  160  00:E07E  13 00             st1     #0
  161  00:E080  23 00             st2     #0
  162  00:E082  03 02             st0     #2
  163                     
  164  00:E084  A2 80             ldx     #128
  165  00:E086  C2        .cl2:   cly
  166  00:E087  13 00     .cl1:   st1     #0
  167  00:E089  23 00             st2     #0
  168  00:E08B  88                dey
  169  00:E08C  D0 F9             bne     .cl1
  170  00:E08E  CA                dex
  171  00:E08F  D0 F5             bne     .cl2
  172                     
  173  00:E091  60                rts
  174                     
  175                     ;       resolution      256x240
  176                     ;       bat size        32x32
  177                     ;       satb copy       $7f00
  178  00:E092            .table:
  179  00:E092  05 00 00          .db     $05,$00,$00     ;control register
  180  00:E095  06 00 00          .db     $06,$00,$00     ;raster counter register
  181  00:E098  07 00 00          .db     $07,$00,$00     ;x scroll register
  182  00:E09B  08 00 00          .db     $08,$00,$00     ;y scroll register
  183  00:E09E  09 00 00          .db     $09,$00,$00     ;memory access width register
  184  00:E0A1  0A                .db     $0a             ;horizontal synchro register
  185  00:C0A2                    HSR     256
  186  00:E0A4  0B                .db     $0b             ;horizontal display register
  187  00:C0A5                    HDR     256
  188  00:E0A7  0C 02 0C          .db     $0c,$02,$0c     ;vertical synchro register
  189  00:E0AA  0D EF 00          .db     $0d,$ef,$00     ;vertical display register
  190  00:E0AD  0E 03 00          .db     $0e,$03,$00     ;vertical display end position register
  191  00:E0B0  0F 10 00          .db     $0f,$10,$00     ;dma control register
  192  00:E0B3  13 00 7F          .db     $13,$00,$7f     ;vram-satb source address register
  193  00:E0B6  00                .db     $00             ;end of table
  194                     ;
  195                     ;       initialize pad
  196                     ;
  197  00:E0B7            initPad:
  198  00:E0B7  64 00             stz     <z_pad
  199  00:E0B9  64 02             stz     <z_padold
  200  00:E0BB  64 01             stz     <z_paddelta
  201  00:E0BD  60                rts
  202                     ;
  203                     ;       read pad
  204                     ;       TODO: support multi tap
  205  00:E0BE            readPad:
  206  00:E0BE  A9 01             lda     #1
  207  00:E0C0  8D 00 10          sta     PadPort
  208  00:E0C3  A9 03             lda     #3
  209  00:E0C5  8D 00 10          sta     PadPort
  210                     
  211  00:E0C8  A5 00             lda     <z_pad
  212  00:E0CA  49 FF             eor     #$ff
  213  00:E0CC  85 02             sta     <z_padold
  214                     
  215  00:E0CE  A9 01             lda     #1
  216  00:E0D0  8D 00 10          sta     PadPort
  217  00:E0D3  22                sax                     ;wait 10 cycles
  218  00:E0D4  22                sax
  219  00:E0D5  EA                nop
  220  00:E0D6  EA                nop
  221  00:E0D7  AD 00 10          lda     PadPort
  222  00:E0DA  0A                asl     a
  223  00:E0DB  0A                asl     a
  224  00:E0DC  0A                asl     a
  225  00:E0DD  0A                asl     a
  226  00:E0DE  85 00             sta     <z_pad
  227                     
  228  00:E0E0  9C 00 10          stz     PadPort
  229  00:E0E3  22                sax                     ;wait 10 cycles
  230  00:E0E4  22                sax
  231  00:E0E5  EA                nop
  232  00:E0E6  EA                nop
  233  00:E0E7  AD 00 10          lda     PadPort
  234  00:E0EA  29 0F             and     #$0f
  235  00:E0EC  05 00             ora     <z_pad
  236  00:E0EE  49 FF             eor     #$ff
  237  00:E0F0  85 00             sta     <z_pad
  238                     
  239  00:E0F2  25 02             and     <z_padold
  240  00:E0F4  85 01             sta     <z_paddelta
  241                     
  242  00:E0F6  60                rts
  243                     ;
  244           2000              .zp
  245  --:2000            z_pad:          .ds 1   ;pad status
  246  --:2001            z_paddelta      .ds 1   ;pad status(delta)
  247  --:2002            z_padold        .ds 1   ;pad status(previous)
  248                     
#[1]   same.asm
#[2]   main.asm
    9                             .include "main.asm"
    1                     ; Zero-page variables
    2                     
    3           2003              .zp
    4                     
    5  --:2003            ptr:    .ds   2         ; pointer to buffer address
    6  --:2005            a_cnt:  .ds   1
    7  --:2006            x_cnt:  .ds   1
    8                     
    9                     
   10                             ;; scroll counter
   11  --:2007            scrx:   .ds     2
   12  --:2009            scry:   .ds     2
   13                     
   14  --:200B            prevscrx:       .ds     2
   15  --:200D            prevscry:       .ds     2
   16                     
   17  --:200F            z_d_scryl:      .ds     1
   18  --:2010            z_d_scryh:      .ds     1
   19                             ;...
   20                     
   21                     ;z_sprx: .ds     2
   22                     ;z_spry: .ds     2
   23                     
   24  --:2011            z_tmp0: .ds     1
   25  --:2012            z_tmp1: .ds     1
   26  --:2013            z_tmp2: .ds     1
   27  --:2014            z_tmp3: .ds     1
   28  --:2015            z_tmp4: .ds     1
   29  --:2016            z_tmp5: .ds     1
   30  --:2017            z_tmp6: .ds     1
   31  --:2018            z_tmp7: .ds     1
   32  --:2019            z_tmp8: .ds     1
   33  --:201A            z_tmp9: .ds     1
   34  --:201B            z_tmp10:        .ds     1
   35  --:201C            z_tmp11:        .ds     1
   36  --:201D            z_tmp12:        .ds     1
   37  --:201E            z_tmp13:        .ds     1
   38  --:201F            z_tmp14:        .ds     1
   39  --:2020            z_tmp15:        .ds     1
   40                     
   41  --:2021            z_curchr_x:     .ds     3
   42  --:2024            z_curchr_y:     .ds     3
   43                     
   44  --:2027            z_frame:        .ds     1
   45                     
   46                     ;--- CODE area ----------
   47                     
   48           E0F7              .code
   49           0001              .bank MAIN_BANK
   50           C000              .org  $C000
   51                     
   52                     ;       wait VSync (polling)
   53  01:C000            waitVsync:
   54  01:C000  93 20 00  .wait:  tst     #$20,VdcStatus
       01:C003  00        
   55  01:C004  F0 FA             beq     .wait
   56  01:C006  60                rts
   57                     
   58                     
   59                     
   60                     ;
   61                     ;       main
   62                     ;
   63  01:C007            main:   
   64  01:C007  A9 02             lda     #BANK(bg_pattern)
   65  01:C009  53 08             tam     #PAGE(bg_pattern)
   66                     
   67                             ; set bg palette
   68  01:C00B  A9 00             lda     #LOW(0*16)
   69  01:C00D  8D 02 04          sta     VceIndexL
   70  01:C010  A9 00             lda     #HIGH(0*16)
   71  01:C012  8D 03 04          sta     VceIndexH
   72  01:C015  E3 00 60          tia     bg_palette,VceData,16*16*2
       01:C018  04 04 00  
       01:C01B  02        
   73                     
   74                             ; set sprite palette
   75  01:C01C  A9 00             lda     #LOW(16*16)
   76  01:C01E  8D 02 04          sta     VceIndexL
   77  01:C021  A9 01             lda     #HIGH(16*16)
   78  01:C023  8D 03 04          sta     VceIndexH
   79  01:C026  E3 80 62          tia     spr_palette,VceData,16*16*2
       01:C029  04 04 00  
       01:C02C  02        
   80                     
   81                             ; set bg pattern
   82  01:C02D  03 00             st0     #0
   83  01:C02F  A9 00             lda     #$00
   84  01:C031  8D 02 00          sta     VdcDataL
   85  01:C034  A9 10             lda     #$10
   86  01:C036  8D 03 00          sta     VdcDataH
   87  01:C039  03 02             st0     #2
   88  01:C03B  E3 00 62          tia     bg_pattern,VdcData,bg_pattern_size
       01:C03E  02 00 80  
       01:C041  00        
   89                     
   90                             ; set sprite pattern
   91  01:C042  03 00             st0     #0
   92  01:C044  A9 00             lda     #$00
   93  01:C046  8D 02 00          sta     VdcDataL
   94  01:C049  A9 40             lda     #$40
   95  01:C04B  8D 03 00          sta     VdcDataH
   96  01:C04E  03 02             st0     #2
   97  01:C050  E3 80 64          tia     spr_pattern,VdcData,spr_pattern_size
       01:C053  02 00 00  
       01:C056  18        
   98                     
   99                             ; set sprite pattern 2
  100  01:C057  A9 03             lda     #BANK(spr_pattern2)
  101  01:C059  53 10             tam     #PAGE(spr_pattern2)
  102                     
  103  01:C05B  03 00             st0     #0
  104  01:C05D  A9 00             lda     #$00
  105  01:C05F  8D 02 00          sta     VdcDataL
  106  01:C062  A9 50             lda     #$50
  107  01:C064  8D 03 00          sta     VdcDataH
  108  01:C067  03 02             st0     #2
  109  01:C069  E3 00 80          tia     spr_pattern2,VdcData,spr_pattern2_size
       01:C06C  02 00 E0  
       01:C06F  1E        
  110                     
  111                             ; set sprite pattern 3
  112  01:C070  A9 04             lda     #BANK(spr_pattern3)
  113  01:C072  53 20             tam     #PAGE(spr_pattern3)
  114                     
  115  01:C074  03 00             st0     #0
  116  01:C076  A9 00             lda     #$00
  117  01:C078  8D 02 00          sta     VdcDataL
  118  01:C07B  A9 60             lda     #$60
  119  01:C07D  8D 03 00          sta     VdcDataH
  120  01:C080  03 02             st0     #2
  121  01:C082  E3 00 A0          tia     spr_pattern3,VdcData,spr_pattern3_size
       01:C085  02 00 80  
       01:C088  02        
  122                     
  123                             ;vsync                  ; vsync to avoid snow
  124  01:C089  20 00 C0          jsr     waitVsync
  125                     
  126                             ; draw background
  127  01:C08C  03 00             st0     #0
  128  01:C08E  13 00             st1     #0
  129  01:C090  23 00             st2     #0
  130                     
  131  01:C092  03 02             st0     #2
  132                     
  133  01:C094  A9 03             lda     #3
  134  01:C096  A0 14             ldy     #20
  135  01:C098  5A        .loop1: phy
  136  01:C099  A0 01             ldy     #$01
  137                             
  138  01:C09B  A2 40             ldx     #64
  139  01:C09D  8D 02 00  .loop2: sta     VdcDataL
  140  01:C0A0  8C 03 00          sty     VdcDataH
  141  01:C0A3  CA        .next:  dex
  142  01:C0A4  D0 F7             bne     .loop2
  143  01:C0A6  7A                ply
  144  01:C0A7  88                dey
  145  01:C0A8  D0 EE             bne     .loop1
  146                     
  147  01:C0AA  A9 02             lda     #2
  148  01:C0AC  A0 14             ldy     #20
  149  01:C0AE  5A        .loop3: phy
  150  01:C0AF  A0 01             ldy     #$01
  151                             
  152  01:C0B1  A2 40             ldx     #64
  153  01:C0B3  8D 02 00  .loop4: sta     VdcDataL
  154  01:C0B6  8C 03 00          sty     VdcDataH
  155  01:C0B9  CA        .next2: dex
  156  01:C0BA  D0 F7             bne     .loop4
  157  01:C0BC  7A                ply
  158  01:C0BD  88                dey
  159  01:C0BE  D0 EE             bne     .loop3
  160                     
  161  01:C0C0  A9 01             lda     #1
  162  01:C0C2  A0 02             ldy     #2
  163  01:C0C4  5A        .loop5: phy
  164  01:C0C5  A0 01             ldy     #$01
  165                             
  166  01:C0C7  A2 40             ldx     #64
  167  01:C0C9  8D 02 00  .loop6: sta     VdcDataL
  168  01:C0CC  8C 03 00          sty     VdcDataH
  169  01:C0CF  CA                dex
  170  01:C0D0  D0 F7             bne     .loop6
  171  01:C0D2  7A                ply
  172  01:C0D3  88                dey
  173  01:C0D4  D0 EE             bne     .loop5
  174                     
  175                     
  176                             ;; initialize sprite
  177                     
  178                     ;       jsr     spr_init
  179                     ;       jsr     spr_update
  180                     
  181                     
  182  01:C0D6  20 61 C2          jsr     CDRVinit
  183  01:C0D9  20 A3 C5          jsr     PL_init
  184                             ;;
  185                             ;; .loop:       bra     .loop
  186                                                     ;
  187  01:C0DC  64 07             stz     <scrx
  188  01:C0DE  64 08             stz     <scrx+1
  189                     ;       stz     <scry
  190                     ;       stz     <scry+1
  191                     
  192  01:C0E0  64 0B             stz     <prevscrx
  193  01:C0E2  64 0C             stz     <prevscrx+1
  194  01:C0E4  64 0D             stz     <prevscry
  195  01:C0E6  64 0E             stz     <prevscry+1
  196                     
  197  01:C0E8  64 0F             stz     <z_d_scryl
  198  01:C0EA  64 10             stz     <z_d_scryh
  199                     
  200  01:C0EC  AE F0 34          ldx     PL_chr
  201  01:C0EF  BD 80 25          lda     CH_yh,x
  202  01:C0F2  38                sec
  203  01:C0F3  E9 28             sbc     #(64+16)/2
  204  01:C0F5  A8                tay
  205  01:C0F6  B9 B3 C6          lda     PLScrollY,y
  206  01:C0F9  8D 09 20          sta     scry
  207  01:C0FC  8D 0D 20          sta     prevscry
  208  01:C0FF  9C 0A 20          stz     scry+1
  209  01:C102  9C 0E 20          stz     prevscry+1
  210                     
  211                     
  212                     
  213  01:C105  20 84 C1          jsr     initPsgTest
  214                     
  215  01:C108  20 82 C8          jsr     PB_fire_init
  216                     
  217                             ;jsr PB_init            ; player's bullet
  218                             ;jsr    EB_init
  219                             ;jsr    EN_init
  220                     
  221                     
  222                     ;        st0     #$0d
  223                     ;        st1     #150
  224                     ;        st2     #0
  225                     ;        st0     #$0e
  226                     ;        st1     #4+39+50
  227                     ;        st2     #0
  228                     ; dc eb
  229                     ; ef fe
  230                     ; cb d7
  231  01:C10B            mainloop:
  232                     ;--
  233                     ; enemy
  234                     ;--
  235  01:C10B  83 07 27          tst     #$07,<z_frame
  236  01:C10E  D0 0B             bne     .skipen
  237                     
  238                     ;        lda     <z_frame
  239                     ;        bmi     .entank
  240  01:C110  DF 27 05          bbs5    <z_frame,.entank
  241  01:C113  20 D3 CC          jsr     ENcreate_Boat_v
  242  01:C116  80 03             bra     .skipen
  243  01:C118            .entank:
  244  01:C118  20 B4 CC          jsr     ENcreate_Tank
  245  01:C11B            .skipen:
  246                     
  247  01:C11B  83 FF 27          tst     #$ff,<z_frame
  248  01:C11E  D0 03             bne     .skipbig
  249                     
  250  01:C120  20 F2 CC          jsr     ENcreate_Big
  251  01:C123            .skipbig:
  252                     
  253  01:C123  20 D9 C3          jsr     CDRVmove
  254                     
  255  01:C126  20 65 D6          jsr     CLtestPBullet2Enemy
  256                             ;jsr    CLtestPlayer2EBullet
  257                     
  258  01:C129  20 4E C5          jsr     CDRVallocSprite
  259  01:C12C  20 0F C4          jsr     CDRVsetSprite
  260                     
  261                     ;       scroll
  262  01:C12F  A2 07             ldx     #scrx&$ff
  263  01:C131  18                clc
  264  01:C132  F4                set
  265  01:C133  69 01             adc     #1
  266  01:C135  E8                inx
  267  01:C136  F4                set
  268  01:C137  69 00             adc     #0
  269                             
  270                     ;       ldx     PL_chr
  271                     ;       lda     CH_yh,x
  272                     ;       sec
  273                     ;       sbc     #(64+16)/2
  274                     ;       tax
  275                     ;       lda     ScrollX,x
  276                     ;       sta     scry
  277                     ;       stz     scry+1
  278                     
  279                     
  280                     ;
  281                     ;       vsync
  282                     ;
  283  01:C139  20 17 C2          jsr     spr_update
  284  01:C13C  20 00 C0          jsr     waitVsync
  285                     
  286                     ;       scroll
  287  01:C13F  03 07             st0     #7
  288  01:C141  A5 07             lda     <scrx
  289  01:C143  8D 02 00          sta     VdcDataL
  290  01:C146  A5 08             lda     <scrx+1
  291  01:C148  8D 03 00          sta     VdcDataH
  292                     
  293  01:C14B  03 08             st0     #8
  294  01:C14D  A5 09             lda     <scry
  295  01:C14F  8D 02 00          sta     VdcDataL
  296  01:C152  A5 0A             lda     <scry+1
  297  01:C154  8D 03 00          sta     VdcDataH
  298                     
  299                     ;       pad
  300  01:C157  20 BE E0          jsr     readPad
  301                     
  302  01:C15A  E6 27             inc     <z_frame
  303                     
  304  01:C15C  A5 07             lda     <scrx
  305  01:C15E  85 0B             sta     <prevscrx
  306  01:C160  A5 08             lda     <scrx+1
  307  01:C162  85 0C             sta     <prevscrx+1
  308  01:C164  A5 09             lda     <scry
  309  01:C166  85 0D             sta     <prevscry
  310  01:C168  A5 0A             lda     <scry+1
  311  01:C16A  85 0E             sta     <prevscry+1
  312                     
  313                     
  314  01:C16C  03 00             st0     #0
  315  01:C16E  A9 00             lda     #$00
  316  01:C170  8D 02 00          sta     VdcDataL
  317  01:C173  A9 40             lda     #$40
  318  01:C175  8D 03 00          sta     VdcDataH
  319  01:C178  03 02             st0     #2
  320  01:C17A  E3 80 64          tia     spr_pattern,VdcData,1736        ;3000=29  2000=1a  1000=0a  1736=15
       01:C17D  02 00 C8  
       01:C180  06        
  321                     ;       tia     spr_pattern,VdcData,spr_pattern_size
  322                     
  323                     
  324                     
  325                     
  326  01:C181  4C 0B C1          jmp     mainloop
  327                     
  328                             
  329                     
  330                     ;.loop: bra     .loop
  331                     
  332                     ;       psg test        
  333  01:C184            initPsgTest:
  334  01:C184  A9 00             lda     #0
  335  01:C186  8D 00 08          sta     PsgChannel
  336                     
  337                     ;       write wave data
  338  01:C189  A9 40             lda     #$40
  339  01:C18B  8D 04 08          sta     PsgCtrl
  340  01:C18E  9C 04 08          stz     PsgCtrl
  341                     
  342  01:C191  82                clx
  343  01:C192  BD B4 C1  .loop:  lda     .wave,x
  344  01:C195  C9 FF             cmp     #$ff
  345  01:C197  F0 06             beq     .loopend
  346  01:C199  8D 06 08          sta     PsgWave
  347  01:C19C  E8                inx
  348  01:C19D  80 F3             bra     .loop
  349                     
  350  01:C19F            .loopend:
  351                     ;       set frequency
  352  01:C19F  A9 FE             lda     #$fe
  353  01:C1A1  8D 02 08          sta     PsgFreqL
  354  01:C1A4  9C 03 08          stz     PsgFreqH
  355                     
  356                     ;       set volume
  357                             ;lda    #$ff
  358  01:C1A7  62                cla
  359  01:C1A8  8D 05 08          sta     PsgChVol
  360  01:C1AB  8D 01 08          sta     PsgMainVol
  361                     
  362  01:C1AE  A9 8F             lda     #$8f
  363  01:C1B0  8D 04 08          sta     PsgCtrl
  364                     
  365  01:C1B3  60                rts
  366                     
  367  01:C1B4            .wave:
  368  01:C1B4  1F 1D 1B          .db     $1f,$1d,$1b,$19,$17,$15,$13,$11
       01:C1B7  19 17 15  
       01:C1BA  13 11     
  369  01:C1BC  0F 0D 0B          .db     $0f,$0d,$0b,$09,$07,$05,$03,$01
       01:C1BF  09 07 05  
       01:C1C2  03 01     
  370  01:C1C4  1F 1D 1B          .db     $1f,$1d,$1b,$19,$17,$15,$13,$11
       01:C1C7  19 17 15  
       01:C1CA  13 11     
  371  01:C1CC  0F 0D 0B          .db     $0f,$0d,$0b,$09,$07,$05,$03,$01
       01:C1CF  09 07 05  
       01:C1D2  03 01     
  372  01:C1D4  FF                .db     $ff     
  373                     
  374  01:C1D5  1F 1F 1F          .db     $1f,$1f,$1f,$1f,$1f,$1f,$1f,$1f
       01:C1D8  1F 1F 1F  
       01:C1DB  1F 1F     
  375  01:C1DD  00 00 00          .db     $00,$00,$00,$00,$00,$00,$00,$00
       01:C1E0  00 00 00  
       01:C1E3  00 00     
  376  01:C1E5  00 00 00          .db     $00,$00,$00,$00,$00,$00,$00,$00
       01:C1E8  00 00 00  
       01:C1EB  00 00     
  377  01:C1ED  00 00 00          .db     $00,$00,$00,$00,$00,$00,$00,$00
       01:C1F0  00 00 00  
       01:C1F3  00 00     
  378  01:C1F5  FF                .db     $ff
  379                     
  380  01:C1F6  0F 12 15          .db     $0f,$12,$15,$17,$19,$1b,$1d,$1E
       01:C1F9  17 19 1B  
       01:C1FC  1D 1E     
  381  01:C1FE  1E 1E 1D          .db     $1e,$1e,$1d,$1b,$19,$17,$15,$12
       01:C201  1B 19 17  
       01:C204  15 12     
  382  01:C206  0F 0C 09          .db     $0f,$0c,$09,$07,$05,$03,$01,$00
       01:C209  07 05 03  
       01:C20C  01 00     
  383  01:C20E  00 00 01          .db     $00,$00,$01,$03,$05,$07,$09,$0c
       01:C211  03 05 07  
       01:C214  09 0C     
  384  01:C216  FF                .db     $ff     
  385                     
  386                     
  387                     
  388           0000              .if     0
  487                             .endif
  488                     
  489  01:C217            spr_update:
  490  01:C217  03 00             st0     #0
  491  01:C219  13 00             st1     #$00
  492  01:C21B  23 7F             st2     #$7f
  493  01:C21D  03 02             st0     #2
  494  01:C21F  E3 00 22          tia     satb,VdcDataL,512
       01:C222  02 00 00  
       01:C225  02        
  495  01:C226  60                rts
  496                     
  497                     
  498                     
  499                             ;...
  500                     
  501                     ;ÔΩ±ÔΩ±ÔΩ±[ USER DATA ]ÔΩ±ÔΩ±ÔΩ±ÔΩ±ÔΩ±ÔΩ±ÔΩ±ÔΩ±ÔΩ±ÔΩ±ÔΩ±ÔΩ±ÔΩ±ÔΩ±ÔΩ±ÔΩ±ÔΩ±ÔΩ±ÔΩ±ÔΩ±ÔΩ±ÔΩ±ÔΩ±ÔΩ±ÔΩ±ÔΩ±ÔΩ±ÔΩ±ÔΩ±ÔΩ±ÔΩ±ÔΩ±ÔΩ±ÔΩ±ÔΩ±ÔΩ±Ô
  502                     
  503                     
  504           0002              .bank  MAIN_BANK+1
  505           6000              .org   $6000
  506                     
  507                     
  508                     ;--------
  509                     ;--------
  510  02:6000            bg_palette:
  511  02:6000  00 00             dw $0000,$01b6,$0120,$0000,$0000,$0000,$0000,$0000,$0107,$01c7,$0000,$0000,$0000,$0000,$0000,$0000
       02:6002  B6 01     
       02:6004  20 01     
       02:6006  00 00     
       02:6008  00 00     
       02:600A  00 00     
       02:600C  00 00     
       02:600E  00 00     
       02:6010  07 01     
       02:6012  C7 01     
       02:6014  00 00     
       02:6016  00 00     
       02:6018  00 00     
       02:601A  00 00     
       02:601C  00 00     
       02:601E  00 00     
  512  02:6020  00 00             dw $0000,$01b6,$0120,$0000,$0000,$0000,$0000,$0000,$0107,$01c7,$0000,$0000,$0000,$0000,$0000,$0000
       02:6022  B6 01     
       02:6024  20 01     
       02:6026  00 00     
       02:6028  00 00     
       02:602A  00 00     
       02:602C  00 00     
       02:602E  00 00     
       02:6030  07 01     
       02:6032  C7 01     
       02:6034  00 00     
       02:6036  00 00     
       02:6038  00 00     
       02:603A  00 00     
       02:603C  00 00     
       02:603E  00 00     
  513  02:6040  00 00             dw $0000,$01b6,$0120,$0000,$0000,$0000,$0000,$0000,$0107,$01c7,$0000,$0000,$0000,$0000,$0000,$0000
       02:6042  B6 01     
       02:6044  20 01     
       02:6046  00 00     
       02:6048  00 00     
       02:604A  00 00     
       02:604C  00 00     
       02:604E  00 00     
       02:6050  07 01     
       02:6052  C7 01     
       02:6054  00 00     
       02:6056  00 00     
       02:6058  00 00     
       02:605A  00 00     
       02:605C  00 00     
       02:605E  00 00     
  514  02:6060  00 00             dw $0000,$01b6,$0120,$0000,$0000,$0000,$0000,$0000,$0107,$01c7,$0000,$0000,$0000,$0000,$0000,$0000
       02:6062  B6 01     
       02:6064  20 01     
       02:6066  00 00     
       02:6068  00 00     
       02:606A  00 00     
       02:606C  00 00     
       02:606E  00 00     
       02:6070  07 01     
       02:6072  C7 01     
       02:6074  00 00     
       02:6076  00 00     
       02:6078  00 00     
       02:607A  00 00     
       02:607C  00 00     
       02:607E  00 00     
  515  02:6080  00 00             dw $0000,$01b6,$0120,$0000,$0000,$0000,$0000,$0000,$0107,$01c7,$0000,$0000,$0000,$0000,$0000,$0000
       02:6082  B6 01     
       02:6084  20 01     
       02:6086  00 00     
       02:6088  00 00     
       02:608A  00 00     
       02:608C  00 00     
       02:608E  00 00     
       02:6090  07 01     
       02:6092  C7 01     
       02:6094  00 00     
       02:6096  00 00     
       02:6098  00 00     
       02:609A  00 00     
       02:609C  00 00     
       02:609E  00 00     
  516  02:60A0  00 00             dw $0000,$01b6,$0120,$0000,$0000,$0000,$0000,$0000,$0107,$01c7,$0000,$0000,$0000,$0000,$0000,$0000
       02:60A2  B6 01     
       02:60A4  20 01     
       02:60A6  00 00     
       02:60A8  00 00     
       02:60AA  00 00     
       02:60AC  00 00     
       02:60AE  00 00     
       02:60B0  07 01     
       02:60B2  C7 01     
       02:60B4  00 00     
       02:60B6  00 00     
       02:60B8  00 00     
       02:60BA  00 00     
       02:60BC  00 00     
       02:60BE  00 00     
  517  02:60C0  00 00             dw $0000,$01b6,$0120,$0000,$0000,$0000,$0000,$0000,$0107,$01c7,$0000,$0000,$0000,$0000,$0000,$0000
       02:60C2  B6 01     
       02:60C4  20 01     
       02:60C6  00 00     
       02:60C8  00 00     
       02:60CA  00 00     
       02:60CC  00 00     
       02:60CE  00 00     
       02:60D0  07 01     
       02:60D2  C7 01     
       02:60D4  00 00     
       02:60D6  00 00     
       02:60D8  00 00     
       02:60DA  00 00     
       02:60DC  00 00     
       02:60DE  00 00     
  518  02:60E0  00 00             dw $0000,$01b6,$0120,$0000,$0000,$0000,$0000,$0000,$0107,$01c7,$0000,$0000,$0000,$0000,$0000,$0000
       02:60E2  B6 01     
       02:60E4  20 01     
       02:60E6  00 00     
       02:60E8  00 00     
       02:60EA  00 00     
       02:60EC  00 00     
       02:60EE  00 00     
       02:60F0  07 01     
       02:60F2  C7 01     
       02:60F4  00 00     
       02:60F6  00 00     
       02:60F8  00 00     
       02:60FA  00 00     
       02:60FC  00 00     
       02:60FE  00 00     
  519  02:6100  00 00             dw $0000,$01b6,$0120,$0000,$0000,$0000,$0000,$0000,$0107,$01c7,$0000,$0000,$0000,$0000,$0000,$0000
       02:6102  B6 01     
       02:6104  20 01     
       02:6106  00 00     
       02:6108  00 00     
       02:610A  00 00     
       02:610C  00 00     
       02:610E  00 00     
       02:6110  07 01     
       02:6112  C7 01     
       02:6114  00 00     
       02:6116  00 00     
       02:6118  00 00     
       02:611A  00 00     
       02:611C  00 00     
       02:611E  00 00     
  520  02:6120  00 00             dw $0000,$01b6,$0120,$0000,$0000,$0000,$0000,$0000,$0107,$01c7,$0000,$0000,$0000,$0000,$0000,$0000
       02:6122  B6 01     
       02:6124  20 01     
       02:6126  00 00     
       02:6128  00 00     
       02:612A  00 00     
       02:612C  00 00     
       02:612E  00 00     
       02:6130  07 01     
       02:6132  C7 01     
       02:6134  00 00     
       02:6136  00 00     
       02:6138  00 00     
       02:613A  00 00     
       02:613C  00 00     
       02:613E  00 00     
  521  02:6140  00 00             dw $0000,$01b6,$0120,$0000,$0000,$0000,$0000,$0000,$0107,$01c7,$0000,$0000,$0000,$0000,$0000,$0000
       02:6142  B6 01     
       02:6144  20 01     
       02:6146  00 00     
       02:6148  00 00     
       02:614A  00 00     
       02:614C  00 00     
       02:614E  00 00     
       02:6150  07 01     
       02:6152  C7 01     
       02:6154  00 00     
       02:6156  00 00     
       02:6158  00 00     
       02:615A  00 00     
       02:615C  00 00     
       02:615E  00 00     
  522  02:6160  00 00             dw $0000,$01b6,$0120,$0000,$0000,$0000,$0000,$0000,$0107,$01c7,$0000,$0000,$0000,$0000,$0000,$0000
       02:6162  B6 01     
       02:6164  20 01     
       02:6166  00 00     
       02:6168  00 00     
       02:616A  00 00     
       02:616C  00 00     
       02:616E  00 00     
       02:6170  07 01     
       02:6172  C7 01     
       02:6174  00 00     
       02:6176  00 00     
       02:6178  00 00     
       02:617A  00 00     
       02:617C  00 00     
       02:617E  00 00     
  523  02:6180  00 00             dw $0000,$01b6,$0120,$0000,$0000,$0000,$0000,$0000,$0107,$01c7,$0000,$0000,$0000,$0000,$0000,$0000
       02:6182  B6 01     
       02:6184  20 01     
       02:6186  00 00     
       02:6188  00 00     
       02:618A  00 00     
       02:618C  00 00     
       02:618E  00 00     
       02:6190  07 01     
       02:6192  C7 01     
       02:6194  00 00     
       02:6196  00 00     
       02:6198  00 00     
       02:619A  00 00     
       02:619C  00 00     
       02:619E  00 00     
  524  02:61A0  00 00             dw $0000,$01b6,$0120,$0000,$0000,$0000,$0000,$0000,$0107,$01c7,$0000,$0000,$0000,$0000,$0000,$0000
       02:61A2  B6 01     
       02:61A4  20 01     
       02:61A6  00 00     
       02:61A8  00 00     
       02:61AA  00 00     
       02:61AC  00 00     
       02:61AE  00 00     
       02:61B0  07 01     
       02:61B2  C7 01     
       02:61B4  00 00     
       02:61B6  00 00     
       02:61B8  00 00     
       02:61BA  00 00     
       02:61BC  00 00     
       02:61BE  00 00     
  525  02:61C0  00 00             dw $0000,$01b6,$0120,$0000,$0000,$0000,$0000,$0000,$0107,$01c7,$0000,$0000,$0000,$0000,$0000,$0000
       02:61C2  B6 01     
       02:61C4  20 01     
       02:61C6  00 00     
       02:61C8  00 00     
       02:61CA  00 00     
       02:61CC  00 00     
       02:61CE  00 00     
       02:61D0  07 01     
       02:61D2  C7 01     
       02:61D4  00 00     
       02:61D6  00 00     
       02:61D8  00 00     
       02:61DA  00 00     
       02:61DC  00 00     
       02:61DE  00 00     
  526  02:61E0  00 00             dw $0000,$01b6,$0120,$0000,$0000,$0000,$0000,$0000,$0107,$01c7,$0000,$0000,$0000,$0000,$0000,$0000
       02:61E2  B6 01     
       02:61E4  20 01     
       02:61E6  00 00     
       02:61E8  00 00     
       02:61EA  00 00     
       02:61EC  00 00     
       02:61EE  00 00     
       02:61F0  07 01     
       02:61F2  C7 01     
       02:61F4  00 00     
       02:61F6  00 00     
       02:61F8  00 00     
       02:61FA  00 00     
       02:61FC  00 00     
       02:61FE  00 00     
  527                     
  528  02:6200            bg_pattern:
  529  02:6200  00 00             dw $0000,$0000,$0000,$0000,$0000,$0000,$0000,$0000
       02:6202  00 00     
       02:6204  00 00     
       02:6206  00 00     
       02:6208  00 00     
       02:620A  00 00     
       02:620C  00 00     
       02:620E  00 00     
  530  02:6210  00 00             dw $0000,$0000,$0000,$0000,$0000,$0000,$0000,$0000
       02:6212  00 00     
       02:6214  00 00     
       02:6216  00 00     
       02:6218  00 00     
       02:621A  00 00     
       02:621C  00 00     
       02:621E  00 00     
  531                     
  532  02:6220  FF 00             dw $00ff,$00ff,$00ff,$00ff,$00ff,$00ff,$00ff,$00ff
       02:6222  FF 00     
       02:6224  FF 00     
       02:6226  FF 00     
       02:6228  FF 00     
       02:622A  FF 00     
       02:622C  FF 00     
       02:622E  FF 00     
  533  02:6230  00 00             dw $0000,$0000,$0000,$0000,$0000,$0000,$0000,$0000
       02:6232  00 00     
       02:6234  00 00     
       02:6236  00 00     
       02:6238  00 00     
       02:623A  00 00     
       02:623C  00 00     
       02:623E  00 00     
  534                     
  535  02:6240  00 FF             dw $ff00,$ff00,$ff00,$ff00,$ff00,$ff00,$ff00,$ff00
       02:6242  00 FF     
       02:6244  00 FF     
       02:6246  00 FF     
       02:6248  00 FF     
       02:624A  00 FF     
       02:624C  00 FF     
       02:624E  00 FF     
  536  02:6250  00 00             dw $0000,$0000,$0000,$0000,$0000,$0000,$0000,$0000
       02:6252  00 00     
       02:6254  00 00     
       02:6256  00 00     
       02:6258  00 00     
       02:625A  00 00     
       02:625C  00 00     
       02:625E  00 00     
  537                     
  538  02:6260  00 00             dw $0000,$0040,$0060,$0010,$0000,$0008,$0000,$0000
       02:6262  40 00     
       02:6264  60 00     
       02:6266  10 00     
       02:6268  00 00     
       02:626A  08 00     
       02:626C  00 00     
       02:626E  00 00     
  539  02:6270  00 FF             dw $ff00,$ff00,$ff00,$ff00,$ff00,$ff00,$ff00,$ff00
       02:6272  00 FF     
       02:6274  00 FF     
       02:6276  00 FF     
       02:6278  00 FF     
       02:627A  00 FF     
       02:627C  00 FF     
       02:627E  00 FF     
  540  02:6280            bg_pattern_end:
  541                     
  542           0080      bg_pattern_size .equ    bg_pattern_end-bg_pattern
  543                     
  544                     ;--------
  545                     ;--------
  546  02:6280            spr_palette:
  547  02:6280  00 00             dw $0000,$00ba,$0071,$0069,$0020,$0018,$0018,$0010,$0164,$011b,$00d2,$0092,$00e0,$0098,$0100,$0000      ;pl
       02:6282  BA 00     
       02:6284  71 00     
       02:6286  69 00     
       02:6288  20 00     
       02:628A  18 00     
       02:628C  18 00     
       02:628E  10 00     
       02:6290  64 01     
       02:6292  1B 01     
       02:6294  D2 00     
       02:6296  92 00     
       02:6298  E0 00     
       02:629A  98 00     
       02:629C  00 01     
       02:629E  00 00     
  548  02:62A0  00 00             dw $0000,$01ff,$016d,$0124,$00db,$0092,$01cf,$0145,$0104,$00c3,$0082,$01c9,$0141,$0100,$00c0,$0000      ;pb
       02:62A2  FF 01     
       02:62A4  6D 01     
       02:62A6  24 01     
       02:62A8  DB 00     
       02:62AA  92 00     
       02:62AC  CF 01     
       02:62AE  45 01     
       02:62B0  04 01     
       02:62B2  C3 00     
       02:62B4  82 00     
       02:62B6  C9 01     
       02:62B8  41 01     
       02:62BA  00 01     
       02:62BC  C0 00     
       02:62BE  00 00     
  549                     ;        dw $0000,$01ff,$01c7,$0047,$0000,$0000,$0000,$0020,$0000,$0000,$0000,$0000,$0000,$0000,$0000,$0000     ;pb
  550  02:62C0  DB 00             dw $00db,$01fe,$01fc,$01fa,$01b9,$0179,$0139,$00b8,$0038,$0030,$0028,$0020,$0018,$0010,$0010,$0008      ;eb
       02:62C2  FE 01     
       02:62C4  FC 01     
       02:62C6  FA 01     
       02:62C8  B9 01     
       02:62CA  79 01     
       02:62CC  39 01     
       02:62CE  B8 00     
       02:62D0  38 00     
       02:62D2  30 00     
       02:62D4  28 00     
       02:62D6  20 00     
       02:62D8  18 00     
       02:62DA  10 00     
       02:62DC  10 00     
       02:62DE  08 00     
  551                      ;       dw $0000,$0078,$016d,$0000,$0000,$0000,$0000,$0020,$0000,$0000,$0000,$0000,$0000,$0000,$0000,$0000     ;eb
  552  02:62E0  04 00             dw $0004,$00da,$00da,$0091,$0091,$0048,$0048,$0048,$00e0,$0098,$0098,$0050,$0050,$0124,$0020,$0000      ;en
       02:62E2  DA 00     
       02:62E4  DA 00     
       02:62E6  91 00     
       02:62E8  91 00     
       02:62EA  48 00     
       02:62EC  48 00     
       02:62EE  48 00     
       02:62F0  E0 00     
       02:62F2  98 00     
       02:62F4  98 00     
       02:62F6  50 00     
       02:62F8  50 00     
       02:62FA  24 01     
       02:62FC  20 00     
       02:62FE  00 00     
  553  02:6300  00 00             dw $0000,$01ba,$017a,$013a,$00f2,$00b1,$0069,$0029,$0020,$0020,$0018,$0018,$01ff,$01b6,$0124,$0000      ;explosion
       02:6302  BA 01     
       02:6304  7A 01     
       02:6306  3A 01     
       02:6308  F2 00     
       02:630A  B1 00     
       02:630C  69 00     
       02:630E  29 00     
       02:6310  20 00     
       02:6312  20 00     
       02:6314  18 00     
       02:6316  18 00     
       02:6318  FF 01     
       02:631A  B6 01     
       02:631C  24 01     
       02:631E  00 00     
  554  02:6320  02 00             dw $0002,$01fe,$01b5,$0124,$00da,$0091,$0020,$00e8,$00dc,$00dc,$0093,$004a,$01b6,$016d,$0124,$0049      ;en(boat)
       02:6322  FE 01     
       02:6324  B5 01     
       02:6326  24 01     
       02:6328  DA 00     
       02:632A  91 00     
       02:632C  20 00     
       02:632E  E8 00     
       02:6330  DC 00     
       02:6332  DC 00     
       02:6334  93 00     
       02:6336  4A 00     
       02:6338  B6 01     
       02:633A  6D 01     
       02:633C  24 01     
       02:633E  49 00     
  555                     ;        dw $0000,$0078,$016d,$0000,$0000,$0000,$0000,$0020,$0000,$0000,$0000,$0000,$0000,$0000,$0000,$0000
  556  02:6340  00 00             dw $0000,$0078,$016d,$0000,$0000,$0000,$0000,$0020,$0000,$0000,$0000,$0000,$0000,$0000,$0000,$0000
       02:6342  78 00     
       02:6344  6D 01     
       02:6346  00 00     
       02:6348  00 00     
       02:634A  00 00     
       02:634C  00 00     
       02:634E  20 00     
       02:6350  00 00     
       02:6352  00 00     
       02:6354  00 00     
       02:6356  00 00     
       02:6358  00 00     
       02:635A  00 00     
       02:635C  00 00     
       02:635E  00 00     
  557  02:6360  00 00             dw $0000,$0078,$016d,$0000,$0000,$0000,$0000,$0020,$0000,$0000,$0000,$0000,$0000,$0000,$0000,$0000
       02:6362  78 00     
       02:6364  6D 01     
       02:6366  00 00     
       02:6368  00 00     
       02:636A  00 00     
       02:636C  00 00     
       02:636E  20 00     
       02:6370  00 00     
       02:6372  00 00     
       02:6374  00 00     
       02:6376  00 00     
       02:6378  00 00     
       02:637A  00 00     
       02:637C  00 00     
       02:637E  00 00     
  558  02:6380  00 00             dw $0000,$0078,$016d,$0000,$0000,$0000,$0000,$0020,$0000,$0000,$0000,$0000,$0000,$0000,$0000,$0000
       02:6382  78 00     
       02:6384  6D 01     
       02:6386  00 00     
       02:6388  00 00     
       02:638A  00 00     
       02:638C  00 00     
       02:638E  20 00     
       02:6390  00 00     
       02:6392  00 00     
       02:6394  00 00     
       02:6396  00 00     
       02:6398  00 00     
       02:639A  00 00     
       02:639C  00 00     
       02:639E  00 00     
  559  02:63A0  00 00             dw $0000,$0078,$016d,$0000,$0000,$0000,$0000,$0020,$0000,$0000,$0000,$0000,$0000,$0000,$0000,$0000
       02:63A2  78 00     
       02:63A4  6D 01     
       02:63A6  00 00     
       02:63A8  00 00     
       02:63AA  00 00     
       02:63AC  00 00     
       02:63AE  20 00     
       02:63B0  00 00     
       02:63B2  00 00     
       02:63B4  00 00     
       02:63B6  00 00     
       02:63B8  00 00     
       02:63BA  00 00     
       02:63BC  00 00     
       02:63BE  00 00     
  560  02:63C0  00 00             dw $0000,$0078,$016d,$0000,$0000,$0000,$0000,$0020,$0000,$0000,$0000,$0000,$0000,$0000,$0000,$0000
       02:63C2  78 00     
       02:63C4  6D 01     
       02:63C6  00 00     
       02:63C8  00 00     
       02:63CA  00 00     
       02:63CC  00 00     
       02:63CE  20 00     
       02:63D0  00 00     
       02:63D2  00 00     
       02:63D4  00 00     
       02:63D6  00 00     
       02:63D8  00 00     
       02:63DA  00 00     
       02:63DC  00 00     
       02:63DE  00 00     
  561  02:63E0  00 00             dw $0000,$0078,$016d,$0000,$0000,$0000,$0000,$0020,$0000,$0000,$0000,$0000,$0000,$0000,$0000,$0000
       02:63E2  78 00     
       02:63E4  6D 01     
       02:63E6  00 00     
       02:63E8  00 00     
       02:63EA  00 00     
       02:63EC  00 00     
       02:63EE  20 00     
       02:63F0  00 00     
       02:63F2  00 00     
       02:63F4  00 00     
       02:63F6  00 00     
       02:63F8  00 00     
       02:63FA  00 00     
       02:63FC  00 00     
       02:63FE  00 00     
  562  02:6400  00 00             dw $0000,$0078,$016d,$0000,$0000,$0000,$0000,$0020,$0000,$0000,$0000,$0000,$0000,$0000,$0000,$0000
       02:6402  78 00     
       02:6404  6D 01     
       02:6406  00 00     
       02:6408  00 00     
       02:640A  00 00     
       02:640C  00 00     
       02:640E  20 00     
       02:6410  00 00     
       02:6412  00 00     
       02:6414  00 00     
       02:6416  00 00     
       02:6418  00 00     
       02:641A  00 00     
       02:641C  00 00     
       02:641E  00 00     
  563  02:6420  00 00             dw $0000,$0078,$016d,$0000,$0000,$0000,$0000,$0020,$0000,$0000,$0000,$0000,$0000,$0000,$0000,$0000
       02:6422  78 00     
       02:6424  6D 01     
       02:6426  00 00     
       02:6428  00 00     
       02:642A  00 00     
       02:642C  00 00     
       02:642E  20 00     
       02:6430  00 00     
       02:6432  00 00     
       02:6434  00 00     
       02:6436  00 00     
       02:6438  00 00     
       02:643A  00 00     
       02:643C  00 00     
       02:643E  00 00     
  564  02:6440  00 00             dw $0000,$0078,$016d,$0000,$0000,$0000,$0000,$0020,$0000,$0000,$0000,$0000,$0000,$0000,$0000,$0000
       02:6442  78 00     
       02:6444  6D 01     
       02:6446  00 00     
       02:6448  00 00     
       02:644A  00 00     
       02:644C  00 00     
       02:644E  20 00     
       02:6450  00 00     
       02:6452  00 00     
       02:6454  00 00     
       02:6456  00 00     
       02:6458  00 00     
       02:645A  00 00     
       02:645C  00 00     
       02:645E  00 00     
  565  02:6460  00 00             dw $0000,$0078,$016d,$0000,$0000,$0000,$0000,$0020,$0000,$0000,$0000,$0000,$0000,$0000,$0000,$0000
       02:6462  78 00     
       02:6464  6D 01     
       02:6466  00 00     
       02:6468  00 00     
       02:646A  00 00     
       02:646C  00 00     
       02:646E  20 00     
       02:6470  00 00     
       02:6472  00 00     
       02:6474  00 00     
       02:6476  00 00     
       02:6478  00 00     
       02:647A  00 00     
       02:647C  00 00     
       02:647E  00 00     
  566                     
  567  02:6480            spr_pattern:
  568                     
  569  02:6480            spr_pattern_eb:
  570  02:6480  00 00             dw $0000,$0000,$0000,$0000,$0140,$01c0,$0570,$0520
       02:6482  00 00     
       02:6484  00 00     
       02:6486  00 00     
       02:6488  40 01     
       02:648A  C0 01     
       02:648C  70 05     
       02:648E  20 05     
  571  02:6490  F0 05             dw $05f0,$0200,$01c0,$0000,$0000,$0000,$0000,$0000
       02:6492  00 02     
       02:6494  C0 01     
       02:6496  00 00     
       02:6498  00 00     
       02:649A  00 00     
       02:649C  00 00     
       02:649E  00 00     
  572  02:64A0  00 00             dw $0000,$0000,$0000,$0000,$0000,$01c0,$01a0,$01e0
       02:64A2  00 00     
       02:64A4  00 00     
       02:64A6  00 00     
       02:64A8  00 00     
       02:64AA  C0 01     
       02:64AC  A0 01     
       02:64AE  E0 01     
  573  02:64B0  E0 01             dw $01e0,$0000,$0000,$0000,$0000,$0000,$0000,$0000
       02:64B2  00 00     
       02:64B4  00 00     
       02:64B6  00 00     
       02:64B8  00 00     
       02:64BA  00 00     
       02:64BC  00 00     
       02:64BE  00 00     
  574  02:64C0  00 00             dw $0000,$0000,$0000,$0000,$01c0,$0220,$0610,$0610
       02:64C2  00 00     
       02:64C4  00 00     
       02:64C6  00 00     
       02:64C8  C0 01     
       02:64CA  20 02     
       02:64CC  10 06     
       02:64CE  10 06     
  575  02:64D0  10 06             dw $0610,$03e0,$01c0,$0000,$0000,$0000,$0000,$0000
       02:64D2  E0 03     
       02:64D4  C0 01     
       02:64D6  00 00     
       02:64D8  00 00     
       02:64DA  00 00     
       02:64DC  00 00     
       02:64DE  00 00     
  576  02:64E0  00 00             dw $0000,$0000,$0000,$0000,$0000,$0000,$0000,$0000
       02:64E2  00 00     
       02:64E4  00 00     
       02:64E6  00 00     
       02:64E8  00 00     
       02:64EA  00 00     
       02:64EC  00 00     
       02:64EE  00 00     
  577  02:64F0  00 00             dw $0000,$0000,$0000,$0000,$0000,$0000,$0000,$0000
       02:64F2  00 00     
       02:64F4  00 00     
       02:64F6  00 00     
       02:64F8  00 00     
       02:64FA  00 00     
       02:64FC  00 00     
       02:64FE  00 00     
  578                     
  579  02:6500  00 00             dw $0000,$0000,$0000,$0000,$0140,$01c0,$0570,$0520
       02:6502  00 00     
       02:6504  00 00     
       02:6506  00 00     
       02:6508  40 01     
       02:650A  C0 01     
       02:650C  70 05     
       02:650E  20 05     
  580  02:6510  F0 05             dw $05f0,$0200,$01c0,$0000,$0000,$0000,$0000,$0000
       02:6512  00 02     
       02:6514  C0 01     
       02:6516  00 00     
       02:6518  00 00     
       02:651A  00 00     
       02:651C  00 00     
       02:651E  00 00     
  581  02:6520  00 00             dw $0000,$0000,$0000,$0000,$0000,$01c0,$01a0,$01e0
       02:6522  00 00     
       02:6524  00 00     
       02:6526  00 00     
       02:6528  00 00     
       02:652A  C0 01     
       02:652C  A0 01     
       02:652E  E0 01     
  582  02:6530  E0 01             dw $01e0,$0000,$0000,$0000,$0000,$0000,$0000,$0000
       02:6532  00 00     
       02:6534  00 00     
       02:6536  00 00     
       02:6538  00 00     
       02:653A  00 00     
       02:653C  00 00     
       02:653E  00 00     
  583  02:6540  00 00             dw $0000,$0000,$0000,$0000,$0000,$01c0,$01e0,$01e0
       02:6542  00 00     
       02:6544  00 00     
       02:6546  00 00     
       02:6548  00 00     
       02:654A  C0 01     
       02:654C  E0 01     
       02:654E  E0 01     
  584  02:6550  E0 01             dw $01e0,$0000,$0000,$0000,$0000,$0000,$0000,$0000
       02:6552  00 00     
       02:6554  00 00     
       02:6556  00 00     
       02:6558  00 00     
       02:655A  00 00     
       02:655C  00 00     
       02:655E  00 00     
  585  02:6560  00 00             dw $0000,$0000,$0000,$0000,$01c0,$0220,$0610,$0610
       02:6562  00 00     
       02:6564  00 00     
       02:6566  00 00     
       02:6568  C0 01     
       02:656A  20 02     
       02:656C  10 06     
       02:656E  10 06     
  586  02:6570  10 06             dw $0610,$03e0,$01c0,$0000,$0000,$0000,$0000,$0000
       02:6572  E0 03     
       02:6574  C0 01     
       02:6576  00 00     
       02:6578  00 00     
       02:657A  00 00     
       02:657C  00 00     
       02:657E  00 00     
  587                     
  588                     ;       dw      $3c00,$7e00,$ff00,$ff00,$ff00,$ff00,$7e00,$3c00
  589                     ;       dw      $0000,$0000,$0000,$0000,$0000,$0000,$0000,$0000
  590                     ;       dw      $0000,$0000,$0000,$0000,$0000,$0000,$0000,$0000
  591                     ;       dw      $0000,$0000,$0000,$0000,$0000,$0000,$0000,$0000
  592                     ;       dw      $0000,$0000,$0000,$0000,$0000,$0000,$0000,$0000
  593                     ;       dw      $0000,$0000,$0000,$0000,$0000,$0000,$0000,$0000
  594                     ;       dw      $0000,$0000,$0000,$0000,$0000,$0000,$0000,$0000
  595                     ;       dw      $0000,$0000,$0000,$0000,$0000,$0000,$0000,$0000
  596                     
  597                     
  598  02:6580            spr_pattern_pb:
  599  02:6580  00 00             dw $0000,$0000,$0000,$0000,$0530,$0530,$0530,$0000
       02:6582  00 00     
       02:6584  00 00     
       02:6586  00 00     
       02:6588  30 05     
       02:658A  30 05     
       02:658C  30 05     
       02:658E  00 00     
  600  02:6590  30 05             dw $0530,$0530,$0530,$0000,$0000,$0000,$0000,$0000
       02:6592  30 05     
       02:6594  30 05     
       02:6596  00 00     
       02:6598  00 00     
       02:659A  00 00     
       02:659C  00 00     
       02:659E  00 00     
  601  02:65A0  00 00             dw $0000,$0000,$0000,$0000,$09c0,$09c0,$09c0,$0000
       02:65A2  00 00     
       02:65A4  00 00     
       02:65A6  00 00     
       02:65A8  C0 09     
       02:65AA  C0 09     
       02:65AC  C0 09     
       02:65AE  00 00     
  602  02:65B0  C0 09             dw $09c0,$09c0,$09c0,$0000,$0000,$0000,$0000,$0000
       02:65B2  C0 09     
       02:65B4  C0 09     
       02:65B6  00 00     
       02:65B8  00 00     
       02:65BA  00 00     
       02:65BC  00 00     
       02:65BE  00 00     
  603  02:65C0  00 00             dw $0000,$0000,$0000,$0000,$01c0,$01c0,$01c0,$0000
       02:65C2  00 00     
       02:65C4  00 00     
       02:65C6  00 00     
       02:65C8  C0 01     
       02:65CA  C0 01     
       02:65CC  C0 01     
       02:65CE  00 00     
  604  02:65D0  C0 01             dw $01c0,$01c0,$01c0,$0000,$0000,$0000,$0000,$0000
       02:65D2  C0 01     
       02:65D4  C0 01     
       02:65D6  00 00     
       02:65D8  00 00     
       02:65DA  00 00     
       02:65DC  00 00     
       02:65DE  00 00     
  605  02:65E0  00 00             dw $0000,$0000,$0000,$0000,$0e00,$0e00,$0e00,$0000
       02:65E2  00 00     
       02:65E4  00 00     
       02:65E6  00 00     
       02:65E8  00 0E     
       02:65EA  00 0E     
       02:65EC  00 0E     
       02:65EE  00 00     
  606  02:65F0  00 0E             dw $0e00,$0e00,$0e00,$0000,$0000,$0000,$0000,$0000
       02:65F2  00 0E     
       02:65F4  00 0E     
       02:65F6  00 00     
       02:65F8  00 00     
       02:65FA  00 00     
       02:65FC  00 00     
       02:65FE  00 00     
  607                     
  608  02:6600            spr_pattern_pb2:
  609  02:6600  00 00             dw $0000,$0000,$0000,$0000,$00c0,$00c0,$0300,$0530
       02:6602  00 00     
       02:6604  00 00     
       02:6606  00 00     
       02:6608  C0 00     
       02:660A  C0 00     
       02:660C  00 03     
       02:660E  30 05     
  610  02:6610  30 04             dw $0430,$0180,$0080,$0600,$0000,$0000,$0000,$0000
       02:6612  80 01     
       02:6614  80 00     
       02:6616  00 06     
       02:6618  00 00     
       02:661A  00 00     
       02:661C  00 00     
       02:661E  00 00     
  611  02:6620  00 00             dw $0000,$0000,$0000,$0000,$0000,$0100,$0380,$0100
       02:6622  00 00     
       02:6624  00 00     
       02:6626  00 00     
       02:6628  00 00     
       02:662A  00 01     
       02:662C  80 03     
       02:662E  00 01     
  612  02:6630  40 08             dw $0840,$08c0,$0480,$0800,$0000,$0000,$0000,$0000
       02:6632  C0 08     
       02:6634  80 04     
       02:6636  00 08     
       02:6638  00 00     
       02:663A  00 00     
       02:663C  00 00     
       02:663E  00 00     
  613  02:6640  00 00             dw $0000,$0000,$0000,$0000,$0000,$0100,$0380,$0100
       02:6642  00 00     
       02:6644  00 00     
       02:6646  00 00     
       02:6648  00 00     
       02:664A  00 01     
       02:664C  80 03     
       02:664E  00 01     
  614  02:6650  40 00             dw $0040,$00c0,$0080,$0000,$0000,$0000,$0000,$0000
       02:6652  C0 00     
       02:6654  80 00     
       02:6656  00 00     
       02:6658  00 00     
       02:665A  00 00     
       02:665C  00 00     
       02:665E  00 00     
  615  02:6660  00 00             dw $0000,$0000,$0000,$0000,$0000,$0000,$0000,$0600
       02:6662  00 00     
       02:6664  00 00     
       02:6666  00 00     
       02:6668  00 00     
       02:666A  00 00     
       02:666C  00 00     
       02:666E  00 06     
  616  02:6670  80 0C             dw $0c80,$0900,$0700,$0e00,$0000,$0000,$0000,$0000
       02:6672  00 09     
       02:6674  00 07     
       02:6676  00 0E     
       02:6678  00 00     
       02:667A  00 00     
       02:667C  00 00     
       02:667E  00 00     
  617                     
  618                     ;       dw      $0000,$0036,$0036,$0000,$0000,$0036,$0036,$0000
  619                     ;       dw      $0000,$0000,$0000,$0000,$0000,$0000,$0000,$0000
  620                     ;       dw      $0000,$0000,$0000,$0036,$0036,$0036,$0036,$0000
  621                     ;       dw      $0000,$0000,$0000,$0000,$0000,$0000,$0000,$0000
  622                     ;       dw      $0000,$0000,$0000,$0000,$0000,$0000,$0000,$0000
  623                     ;       dw      $0000,$0000,$0000,$0000,$0000,$0000,$0000,$0000
  624                     ;       dw      $0000,$0000,$0000,$0000,$0000,$0000,$0000,$0000
  625                     ;       dw      $0000,$0000,$0000,$0000,$0000,$0000,$0000,$0000
  626                     
  627                     ;       dw      $0000,$0000,$0000,$0c00,$6c00,$7800,$d800,$c000
  628                     ;       dw      $0000,$0600,$3600,$3000,$0000,$1800,$d800,$c000
  629                     ;       dw      $0000,$0000,$0000,$0000,$0000,$0000,$0000,$0000
  630                     ;       dw      $0000,$0000,$0000,$0000,$0000,$0000,$0000,$0000
  631                     ;       dw      $0000,$0000,$0000,$0000,$0000,$0000,$0000,$0000
  632                     ;       dw      $0000,$0000,$0000,$0000,$0000,$0000,$0000,$0000
  633                     ;       dw      $0000,$0000,$0000,$0000,$0000,$0000,$0000,$0000
  634                     ;       dw      $0000,$0000,$0000,$0000,$0000,$0000,$0000,$0000
  635                     
  636                     ;       dw      $0000,$0000,$3000,$6c00,$d800,$b000,$2000,$0000
  637                     ;       dw      $0c00,$1b00,$0600,$0000,$c000,$b000,$2000,$0000
  638                     ;       dw      $0000,$0000,$0000,$0000,$0000,$0000,$0000,$0000
  639                     ;       dw      $0000,$0000,$0000,$0000,$0000,$0000,$0000,$0000
  640                     ;       dw      $0000,$0000,$0000,$0000,$0000,$0000,$0000,$0000
  641                     ;       dw      $0000,$0000,$0000,$0000,$0000,$0000,$0000,$0000
  642                     ;       dw      $0000,$0000,$0000,$0000,$0000,$0000,$0000,$0000
  643                     ;       dw      $0000,$0000,$0000,$0000,$0000,$0000,$0000,$0000
  644                     
  645  02:6680            spr_pattern_pl:
  646  02:6680  01 00             dw $0001,$0006,$001d,$000c,$001c,$0006,$001d,$400c
       02:6682  06 00     
       02:6684  1D 00     
       02:6686  0C 00     
       02:6688  1C 00     
       02:668A  06 00     
       02:668C  1D 00     
       02:668E  0C 40     
  647  02:6690  1C 60             dw $601c,$200e,$001d,$6006,$601d,$6044,$607c,$065e
       02:6692  0E 20     
       02:6694  1D 00     
       02:6696  06 60     
       02:6698  1D 60     
       02:669A  44 60     
       02:669C  7C 60     
       02:669E  5E 06     
  648  02:66A0  01 00             dw $0001,$0007,$000f,$000f,$000d,$000f,$000d,$100f
       02:66A2  07 00     
       02:66A4  0F 00     
       02:66A6  0F 00     
       02:66A8  0D 00     
       02:66AA  0F 00     
       02:66AC  0D 00     
       02:66AE  0F 10     
  649  02:66B0  0F 38             dw $380f,$780f,$780d,$380f,$380f,$387f,$3fbf,$0417
       02:66B2  0F 78     
       02:66B4  0D 78     
       02:66B6  0F 38     
       02:66B8  0F 38     
       02:66BA  7F 38     
       02:66BC  BF 3F     
       02:66BE  17 04     
  650  02:66C0  02 00             dw $0002,$0004,$001e,$001f,$001b,$0014,$001e,$601e
       02:66C2  04 00     
       02:66C4  1E 00     
       02:66C6  1F 00     
       02:66C8  1B 00     
       02:66CA  14 00     
       02:66CC  1E 00     
       02:66CE  1E 60     
  651  02:66D0  1F 40             dw $401f,$401d,$601a,$5014,$401e,$4003,$401f,$003c
       02:66D2  1D 40     
       02:66D4  1A 60     
       02:66D6  14 50     
       02:66D8  1E 40     
       02:66DA  03 40     
       02:66DC  1F 40     
       02:66DE  3C 00     
  652  02:66E0  00 00             dw $0000,$0000,$0000,$0000,$0004,$0008,$0000,$0000
       02:66E2  00 00     
       02:66E4  00 00     
       02:66E6  00 00     
       02:66E8  04 00     
       02:66EA  08 00     
       02:66EC  00 00     
       02:66EE  00 00     
  653  02:66F0  00 00             dw $0000,$0000,$0004,$0008,$000c,$007c,$07fc,$fffc
       02:66F2  00 00     
       02:66F4  04 00     
       02:66F6  08 00     
       02:66F8  0C 00     
       02:66FA  7C 00     
       02:66FC  FC 07     
       02:66FE  FC FF     
  654  02:6700  00 80             dw $8000,$6000,$9000,$7000,$1000,$3000,$9000,$7800
       02:6702  00 60     
       02:6704  00 90     
       02:6706  00 70     
       02:6708  00 10     
       02:670A  00 30     
       02:670C  00 90     
       02:670E  00 78     
  655  02:6710  00 90             dw $9000,$7000,$1080,$5080,$9000,$7400,$1100,$7a00
       02:6712  00 70     
       02:6714  80 10     
       02:6716  80 50     
       02:6718  00 90     
       02:671A  00 74     
       02:671C  00 11     
       02:671E  00 7A     
  656  02:6720  00 C0             dw $c000,$8000,$e000,$8000,$e000,$c000,$e000,$8400
       02:6722  00 80     
       02:6724  00 E0     
       02:6726  00 80     
       02:6728  00 E0     
       02:672A  00 C0     
       02:672C  00 E0     
       02:672E  00 84     
  657  02:6730  00 E0             dw $e000,$8000,$e000,$a000,$e080,$8a80,$e000,$8100
       02:6732  00 80     
       02:6734  00 E0     
       02:6736  00 A0     
       02:6738  80 E0     
       02:673A  80 8A     
       02:673C  00 E0     
       02:673E  00 81     
  658  02:6740  00 00             dw $0000,$0000,$0000,$0000,$8000,$c000,$2000,$0400
       02:6742  00 00     
       02:6744  00 00     
       02:6746  00 00     
       02:6748  00 80     
       02:674A  00 C0     
       02:674C  00 20     
       02:674E  00 04     
  659  02:6750  00 00             dw $0000,$8000,$c000,$2000,$0000,$0400,$8400,$0400
       02:6752  00 80     
       02:6754  00 C0     
       02:6756  00 20     
       02:6758  00 00     
       02:675A  00 04     
       02:675C  00 84     
       02:675E  00 04     
  660  02:6760  00 00             dw $0000,$0000,$0000,$0000,$0000,$0000,$0000,$0c00
       02:6762  00 00     
       02:6764  00 00     
       02:6766  00 00     
       02:6768  00 00     
       02:676A  00 00     
       02:676C  00 00     
       02:676E  00 0C     
  661  02:6770  00 00             dw $0000,$0080,$0080,$0000,$0080,$0e80,$0f00,$0f00
       02:6772  80 00     
       02:6774  80 00     
       02:6776  00 00     
       02:6778  80 00     
       02:677A  80 0E     
       02:677C  00 0F     
       02:677E  00 0F     
  662  02:6780  FF 07             dw $07ff,$0077,$001f,$2006,$001d,$200e,$601c,$400c
       02:6782  77 00     
       02:6784  1F 00     
       02:6786  06 20     
       02:6788  1D 00     
       02:678A  0E 20     
       02:678C  1C 60     
       02:678E  0C 40     
  663  02:6790  1D 00             dw $001d,$0006,$001c,$000c,$001d,$0006,$0001,$0000
       02:6792  06 00     
       02:6794  1C 00     
       02:6796  0C 00     
       02:6798  1D 00     
       02:679A  06 00     
       02:679C  01 00     
       02:679E  00 00     
  664  02:67A0  FF 7F             dw $7fff,$787f,$780f,$780f,$780d,$780f,$380f,$100f
       02:67A2  7F 78     
       02:67A4  0F 78     
       02:67A6  0F 78     
       02:67A8  0D 78     
       02:67AA  0F 78     
       02:67AC  0F 38     
       02:67AE  0F 10     
  665  02:67B0  0D 00             dw $000d,$000f,$000d,$000f,$000f,$0007,$0001,$0000
       02:67B2  0F 00     
       02:67B4  0D 00     
       02:67B6  0F 00     
       02:67B8  0F 00     
       02:67BA  07 00     
       02:67BC  01 00     
       02:67BE  00 00     
  666  02:67C0  1F 78             dw $781f,$7003,$601e,$5014,$601a,$401d,$401f,$601e
       02:67C2  03 70     
       02:67C4  1E 60     
       02:67C6  14 50     
       02:67C8  1A 60     
       02:67CA  1D 40     
       02:67CC  1F 40     
       02:67CE  1E 60     
  667  02:67D0  1E 00             dw $001e,$0014,$001b,$001f,$001e,$0004,$0002,$0000
       02:67D2  14 00     
       02:67D4  1B 00     
       02:67D6  1F 00     
       02:67D8  1E 00     
       02:67DA  04 00     
       02:67DC  02 00     
       02:67DE  00 00     
  668  02:67E0  FC 07             dw $07fc,$007c,$000c,$0008,$0004,$0000,$0000,$0000
       02:67E2  7C 00     
       02:67E4  0C 00     
       02:67E6  08 00     
       02:67E8  04 00     
       02:67EA  00 00     
       02:67EC  00 00     
       02:67EE  00 00     
  669  02:67F0  00 00             dw $0000,$0008,$0004,$0000,$0000,$0000,$0000,$0000
       02:67F2  08 00     
       02:67F4  04 00     
       02:67F6  00 00     
       02:67F8  00 00     
       02:67FA  00 00     
       02:67FC  00 00     
       02:67FE  00 00     
  670  02:6800  00 94             dw $9400,$7e00,$9080,$5080,$1000,$7000,$9000,$5800
       02:6802  00 7E     
       02:6804  80 90     
       02:6806  80 50     
       02:6808  00 10     
       02:680A  00 70     
       02:680C  00 90     
       02:680E  00 58     
  671  02:6810  00 90             dw $9000,$3000,$1000,$7000,$9000,$6000,$8000,$0000
       02:6812  00 30     
       02:6814  00 10     
       02:6816  00 70     
       02:6818  00 90     
       02:681A  00 60     
       02:681C  00 80     
       02:681E  00 00     
  672  02:6820  00 EB             dw $eb00,$8a00,$e000,$a000,$e080,$8080,$e000,$a400
       02:6822  00 8A     
       02:6824  00 E0     
       02:6826  00 A0     
       02:6828  80 E0     
       02:682A  80 80     
       02:682C  00 E0     
       02:682E  00 A4     
  673  02:6830  00 E0             dw $e000,$c000,$e000,$8000,$e000,$8000,$c000,$0000
       02:6832  00 C0     
       02:6834  00 E0     
       02:6836  00 80     
       02:6838  00 E0     
       02:683A  00 80     
       02:683C  00 C0     
       02:683E  00 00     
  674  02:6840  00 84             dw $8400,$0400,$0000,$2000,$c000,$8000,$0000,$2400
       02:6842  00 04     
       02:6844  00 00     
       02:6846  00 20     
       02:6848  00 C0     
       02:684A  00 80     
       02:684C  00 00     
       02:684E  00 24     
  675  02:6850  00 40             dw $4000,$c000,$8000,$0000,$0000,$0000,$0000,$0000
       02:6852  00 C0     
       02:6854  00 80     
       02:6856  00 00     
       02:6858  00 00     
       02:685A  00 00     
       02:685C  00 00     
       02:685E  00 00     
  676  02:6860  00 0F             dw $0f00,$0e80,$0080,$0000,$0080,$0080,$0000,$0c00
       02:6862  80 0E     
       02:6864  80 00     
       02:6866  00 00     
       02:6868  80 00     
       02:686A  80 00     
       02:686C  00 00     
       02:686E  00 0C     
  677  02:6870  00 00             dw $0000,$0000,$0000,$0000,$0000,$0000,$0000,$0000
       02:6872  00 00     
       02:6874  00 00     
       02:6876  00 00     
       02:6878  00 00     
       02:687A  00 00     
       02:687C  00 00     
       02:687E  00 00     
  678                     
  679                     
  680  02:6880  00 00             dw $0000,$0000,$0000,$0100,$0100,$003f,$0040,$0080
       02:6882  00 00     
       02:6884  00 00     
       02:6886  00 01     
       02:6888  00 01     
       02:688A  3F 00     
       02:688C  40 00     
       02:688E  80 00     
  681  02:6890  00 00             dw $0000,$0000,$0000,$0000,$0000,$0000,$0000,$0000
       02:6892  00 00     
       02:6894  00 00     
       02:6896  00 00     
       02:6898  00 00     
       02:689A  00 00     
       02:689C  00 00     
       02:689E  00 00     
  682  02:68A0  00 0E             dw $0e00,$0100,$0300,$0300,$0300,$00ff,$0000,$0000
       02:68A2  00 01     
       02:68A4  00 03     
       02:68A6  00 03     
       02:68A8  00 03     
       02:68AA  FF 00     
       02:68AC  00 00     
       02:68AE  00 00     
  683  02:68B0  00 00             dw $0000,$0000,$0000,$0000,$0000,$0000,$0000,$0000
       02:68B2  00 00     
       02:68B4  00 00     
       02:68B6  00 00     
       02:68B8  00 00     
       02:68BA  00 00     
       02:68BC  00 00     
       02:68BE  00 00     
  684  02:68C0  00 70             dw $7000,$8000,$c000,$c000,$c000,$00ff,$0000,$0000
       02:68C2  00 80     
       02:68C4  00 C0     
       02:68C6  00 C0     
       02:68C8  00 C0     
       02:68CA  FF 00     
       02:68CC  00 00     
       02:68CE  00 00     
  685  02:68D0  00 00             dw $0000,$0000,$0000,$0000,$0000,$0000,$0000,$0000
       02:68D2  00 00     
       02:68D4  00 00     
       02:68D6  00 00     
       02:68D8  00 00     
       02:68DA  00 00     
       02:68DC  00 00     
       02:68DE  00 00     
  686  02:68E0  00 00             dw $0000,$0000,$0000,$8000,$8000,$00fc,$0002,$0001
       02:68E2  00 00     
       02:68E4  00 00     
       02:68E6  00 80     
       02:68E8  00 80     
       02:68EA  FC 00     
       02:68EC  02 00     
       02:68EE  01 00     
  687  02:68F0  00 00             dw $0000,$0000,$0000,$0000,$0000,$0000,$0000,$0000
       02:68F2  00 00     
       02:68F4  00 00     
       02:68F6  00 00     
       02:68F8  00 00     
       02:68FA  00 00     
       02:68FC  00 00     
       02:68FE  00 00     
  688  02:6900  80 00             dw $0080,$0080,$0080,$00c0,$007f,$003f,$0000,$0000
       02:6902  80 00     
       02:6904  80 00     
       02:6906  C0 00     
       02:6908  7F 00     
       02:690A  3F 00     
       02:690C  00 00     
       02:690E  00 00     
  689  02:6910  00 00             dw $0000,$0000,$0000,$0000,$0000,$0000,$0000,$0000
       02:6912  00 00     
       02:6914  00 00     
       02:6916  00 00     
       02:6918  00 00     
       02:691A  00 00     
       02:691C  00 00     
       02:691E  00 00     
  690  02:6920  00 00             dw $0000,$0000,$0000,$0000,$00ff,$00ff,$1400,$1400
       02:6922  00 00     
       02:6924  00 00     
       02:6926  00 00     
       02:6928  FF 00     
       02:692A  FF 00     
       02:692C  00 14     
       02:692E  00 14     
  691  02:6930  00 00             dw $0000,$0000,$0000,$0000,$0000,$0000,$0000,$0000
       02:6932  00 00     
       02:6934  00 00     
       02:6936  00 00     
       02:6938  00 00     
       02:693A  00 00     
       02:693C  00 00     
       02:693E  00 00     
  692  02:6940  00 00             dw $0000,$0000,$0000,$0000,$00ff,$00ff,$2800,$2800
       02:6942  00 00     
       02:6944  00 00     
       02:6946  00 00     
       02:6948  FF 00     
       02:694A  FF 00     
       02:694C  00 28     
       02:694E  00 28     
  693  02:6950  00 00             dw $0000,$0000,$0000,$0000,$0000,$0000,$0000,$0000
       02:6952  00 00     
       02:6954  00 00     
       02:6956  00 00     
       02:6958  00 00     
       02:695A  00 00     
       02:695C  00 00     
       02:695E  00 00     
  694  02:6960  01 00             dw $0001,$0001,$0001,$0003,$00fe,$00fc,$0000,$0000
       02:6962  01 00     
       02:6964  01 00     
       02:6966  03 00     
       02:6968  FE 00     
       02:696A  FC 00     
       02:696C  00 00     
       02:696E  00 00     
  695  02:6970  00 00             dw $0000,$0000,$0000,$0000,$0000,$0000,$0000,$0000
       02:6972  00 00     
       02:6974  00 00     
       02:6976  00 00     
       02:6978  00 00     
       02:697A  00 00     
       02:697C  00 00     
       02:697E  00 00     
  696  02:6980  00 00             dw $0000,$0000,$0000,$0000,$0000,$0000,$0000,$0000
       02:6982  00 00     
       02:6984  00 00     
       02:6986  00 00     
       02:6988  00 00     
       02:698A  00 00     
       02:698C  00 00     
       02:698E  00 00     
  697  02:6990  00 00             dw $0000,$0000,$0000,$0000,$0000,$0000,$0000,$0000
       02:6992  00 00     
       02:6994  00 00     
       02:6996  00 00     
       02:6998  00 00     
       02:699A  00 00     
       02:699C  00 00     
       02:699E  00 00     
  698  02:69A0  00 14             dw $1400,$1400,$0800,$0400,$0300,$0300,$0300,$0300
       02:69A2  00 14     
       02:69A4  00 08     
       02:69A6  00 04     
       02:69A8  00 03     
       02:69AA  00 03     
       02:69AC  00 03     
       02:69AE  00 03     
  699  02:69B0  00 00             dw $0000,$0000,$0000,$0000,$0000,$0000,$0000,$0000
       02:69B2  00 00     
       02:69B4  00 00     
       02:69B6  00 00     
       02:69B8  00 00     
       02:69BA  00 00     
       02:69BC  00 00     
       02:69BE  00 00     
  700  02:69C0  00 28             dw $2800,$2800,$1000,$2000,$c000,$c000,$c000,$c000
       02:69C2  00 28     
       02:69C4  00 10     
       02:69C6  00 20     
       02:69C8  00 C0     
       02:69CA  00 C0     
       02:69CC  00 C0     
       02:69CE  00 C0     
  701  02:69D0  00 00             dw $0000,$0000,$0000,$0000,$0000,$0000,$0000,$0000
       02:69D2  00 00     
       02:69D4  00 00     
       02:69D6  00 00     
       02:69D8  00 00     
       02:69DA  00 00     
       02:69DC  00 00     
       02:69DE  00 00     
  702  02:69E0  00 00             dw $0000,$0000,$0000,$0000,$0000,$0000,$0000,$0000
       02:69E2  00 00     
       02:69E4  00 00     
       02:69E6  00 00     
       02:69E8  00 00     
       02:69EA  00 00     
       02:69EC  00 00     
       02:69EE  00 00     
  703  02:69F0  00 00             dw $0000,$0000,$0000,$0000,$0000,$0000,$0000,$0000
       02:69F2  00 00     
       02:69F4  00 00     
       02:69F6  00 00     
       02:69F8  00 00     
       02:69FA  00 00     
       02:69FC  00 00     
       02:69FE  00 00     
  704  02:6A00  00 00             dw $0000,$0000,$0000,$0001,$0003,$0003,$0001,$0000
       02:6A02  00 00     
       02:6A04  00 00     
       02:6A06  01 00     
       02:6A08  03 00     
       02:6A0A  03 00     
       02:6A0C  01 00     
       02:6A0E  00 00     
  705  02:6A10  00 00             dw $0000,$0000,$0000,$0000,$0000,$0000,$0000,$0000
       02:6A12  00 00     
       02:6A14  00 00     
       02:6A16  00 00     
       02:6A18  00 00     
       02:6A1A  00 00     
       02:6A1C  00 00     
       02:6A1E  00 00     
  706  02:6A20  00 03             dw $0300,$0300,$01fe,$01fe,$01fe,$01fe,$01fe,$0100
       02:6A22  00 03     
       02:6A24  FE 01     
       02:6A26  FE 01     
       02:6A28  FE 01     
       02:6A2A  FE 01     
       02:6A2C  FE 01     
       02:6A2E  00 01     
  707  02:6A30  00 00             dw $0000,$0000,$0000,$0000,$0000,$0000,$0000,$0000
       02:6A32  00 00     
       02:6A34  00 00     
       02:6A36  00 00     
       02:6A38  00 00     
       02:6A3A  00 00     
       02:6A3C  00 00     
       02:6A3E  00 00     
  708  02:6A40  00 C0             dw $c000,$c000,$807f,$807f,$807f,$807f,$807f,$8000
       02:6A42  00 C0     
       02:6A44  7F 80     
       02:6A46  7F 80     
       02:6A48  7F 80     
       02:6A4A  7F 80     
       02:6A4C  7F 80     
       02:6A4E  00 80     
  709  02:6A50  00 00             dw $0000,$0000,$0000,$0000,$0000,$0000,$0000,$0000
       02:6A52  00 00     
       02:6A54  00 00     
       02:6A56  00 00     
       02:6A58  00 00     
       02:6A5A  00 00     
       02:6A5C  00 00     
       02:6A5E  00 00     
  710  02:6A60  00 00             dw $0000,$0000,$0000,$0080,$00c0,$00c0,$0080,$0000
       02:6A62  00 00     
       02:6A64  00 00     
       02:6A66  80 00     
       02:6A68  C0 00     
       02:6A6A  C0 00     
       02:6A6C  80 00     
       02:6A6E  00 00     
  711  02:6A70  00 00             dw $0000,$0000,$0000,$0000,$0000,$0000,$0000,$0000
       02:6A72  00 00     
       02:6A74  00 00     
       02:6A76  00 00     
       02:6A78  00 00     
       02:6A7A  00 00     
       02:6A7C  00 00     
       02:6A7E  00 00     
  712                     
  713                     
  714  02:6A80            spr_pattern_en:
  715  02:6A80  00 00             dw $0000,$0000,$0000,$0000,$0fff,$0400,$8597,$c3ff
       02:6A82  00 00     
       02:6A84  00 00     
       02:6A86  00 00     
       02:6A88  FF 0F     
       02:6A8A  00 04     
       02:6A8C  97 85     
       02:6A8E  FF C3     
  716  02:6A90  FB DD             dw $ddfb,$d9ff,$c39d,$dd3e,$dd70,$d97b,$d9cf,$d0ce
       02:6A92  FF D9     
       02:6A94  9D C3     
       02:6A96  3E DD     
       02:6A98  70 DD     
       02:6A9A  7B D9     
       02:6A9C  CF D9     
       02:6A9E  CE D0     
  717  02:6AA0  00 00             dw $0000,$0000,$0000,$0000,$0800,$03ff,$8268,$fc00
       02:6AA2  00 00     
       02:6AA4  00 00     
       02:6AA6  00 00     
       02:6AA8  00 08     
       02:6AAA  FF 03     
       02:6AAC  68 82     
       02:6AAE  00 FC     
  718  02:6AB0  FF DD             dw $ddff,$ddef,$c1ff,$ddff,$ddff,$ddff,$ddef,$ddf7
       02:6AB2  EF DD     
       02:6AB4  FF C1     
       02:6AB6  FF DD     
       02:6AB8  FF DD     
       02:6ABA  FF DD     
       02:6ABC  EF DD     
       02:6ABE  F7 DD     
  719  02:6AC0  00 00             dw $0000,$0000,$0000,$0000,$3000,$7828,$f800,$ffff
       02:6AC2  00 00     
       02:6AC4  00 00     
       02:6AC6  00 00     
       02:6AC8  00 30     
       02:6ACA  28 78     
       02:6ACC  00 F8     
       02:6ACE  FF FF     
  720  02:6AD0  07 E2             dw $e207,$e21f,$fe3f,$e27f,$e27f,$e2ef,$e2df,$e2d6
       02:6AD2  1F E2     
       02:6AD4  3F FE     
       02:6AD6  7F E2     
       02:6AD8  7F E2     
       02:6ADA  EF E2     
       02:6ADC  DF E2     
       02:6ADE  D6 E2     
  721  02:6AE0  00 00             dw $0000,$0000,$0000,$0000,$0000,$0028,$8000,$c000
       02:6AE2  00 00     
       02:6AE4  00 00     
       02:6AE6  00 00     
       02:6AE8  00 00     
       02:6AEA  28 00     
       02:6AEC  00 80     
       02:6AEE  00 C0     
  722  02:6AF0  03 C0             dw $c003,$c00d,$c01c,$c026,$c072,$c04b,$c097,$c0ce
       02:6AF2  0D C0     
       02:6AF4  1C C0     
       02:6AF6  26 C0     
       02:6AF8  72 C0     
       02:6AFA  4B C0     
       02:6AFC  97 C0     
       02:6AFE  CE C0     
  723  02:6B00  00 00             dw $0000,$0000,$0000,$0000,$ffff,$0007,$24c7,$fff8
       02:6B02  00 00     
       02:6B04  00 00     
       02:6B06  00 00     
       02:6B08  FF FF     
       02:6B0A  07 00     
       02:6B0C  C7 24     
       02:6B0E  F8 FF     
  724  02:6B10  F6 BF             dw $bff6,$fffa,$fa7a,$bfba,$ddba,$6dfa,$aafa,$a67a
       02:6B12  FA FF     
       02:6B14  7A FA     
       02:6B16  BA BF     
       02:6B18  BA DD     
       02:6B1A  FA 6D     
       02:6B1C  FA AA     
       02:6B1E  7A A6     
  725  02:6B20  00 00             dw $0000,$0000,$0000,$0000,$0000,$fff8,$db38,$0007
       02:6B22  00 00     
       02:6B24  00 00     
       02:6B26  00 00     
       02:6B28  00 00     
       02:6B2A  F8 FF     
       02:6B2C  38 DB     
       02:6B2E  07 00     
  726  02:6B30  FE FE             dw $fefe,$ef76,$f7b6,$fbd6,$ffd6,$ffd6,$ffd6,$dfd6
       02:6B32  76 EF     
       02:6B34  B6 F7     
       02:6B36  D6 FB     
       02:6B38  D6 FF     
       02:6B3A  D6 FF     
       02:6B3C  D6 FF     
       02:6B3E  D6 DF     
  727  02:6B40  00 00             dw $0000,$0000,$0000,$0000,$0000,$0000,$0000,$ffff
       02:6B42  00 00     
       02:6B44  00 00     
       02:6B46  00 00     
       02:6B48  00 00     
       02:6B4A  00 00     
       02:6B4C  00 00     
       02:6B4E  FF FF     
  728  02:6B50  00 C0             dw $c000,$f000,$f800,$fc00,$fc00,$7e00,$be00,$0200
       02:6B52  00 F0     
       02:6B54  00 F8     
       02:6B56  00 FC     
       02:6B58  00 FC     
       02:6B5A  00 7E     
       02:6B5C  00 BE     
       02:6B5E  00 02     
  729  02:6B60  00 00             dw $0000,$0000,$0000,$0000,$0000,$0000,$0000,$0000
       02:6B62  00 00     
       02:6B64  00 00     
       02:6B66  00 00     
       02:6B68  00 00     
       02:6B6A  00 00     
       02:6B6C  00 00     
       02:6B6E  00 00     
  730  02:6B70  00 80             dw $8000,$e000,$b000,$a800,$f400,$e400,$ea00,$2200
       02:6B72  00 E0     
       02:6B74  00 B0     
       02:6B76  00 A8     
       02:6B78  00 F4     
       02:6B7A  00 E4     
       02:6B7C  00 EA     
       02:6B7E  00 22     
  731  02:6B80  DE D8             dw $d8de,$d87b,$ddff,$c3b7,$dc93,$d9cc,$d1fb,$ffff
       02:6B82  7B D8     
       02:6B84  FF DD     
       02:6B86  B7 C3     
       02:6B88  93 DC     
       02:6B8A  CC D9     
       02:6B8C  FB D1     
       02:6B8E  FF FF     
  732  02:6B90  00 84             dw $8400,$8723,$c7ff,$ffff,$0000,$0000,$0000,$0000
       02:6B92  23 87     
       02:6B94  FF C7     
       02:6B96  FF FF     
       02:6B98  00 00     
       02:6B9A  00 00     
       02:6B9C  00 00     
       02:6B9E  00 00     
  733  02:6BA0  EF DD             dw $ddef,$ddff,$ddfb,$c1fa,$ddfe,$ddff,$ddff,$f800
       02:6BA2  FF DD     
       02:6BA4  FB DD     
       02:6BA6  FA C1     
       02:6BA8  FE DD     
       02:6BAA  FF DD     
       02:6BAC  FF DD     
       02:6BAE  00 F8     
  734  02:6BB0  FF 83             dw $83ff,$80dc,$f800,$ffff,$0000,$0000,$0000,$0000
       02:6BB2  DC 80     
       02:6BB4  00 F8     
       02:6BB6  FF FF     
       02:6BB8  00 00     
       02:6BBA  00 00     
       02:6BBC  00 00     
       02:6BBE  00 00     
  735  02:6BC0  DE E2             dw $e2de,$e2ef,$e27f,$fe7f,$e23f,$e21f,$e207,$c000
       02:6BC2  EF E2     
       02:6BC4  7F E2     
       02:6BC6  7F FE     
       02:6BC8  3F E2     
       02:6BCA  1F E2     
       02:6BCC  07 E2     
       02:6BCE  00 C0     
  736  02:6BD0  00 F8             dw $f800,$f800,$ffff,$ffff,$0000,$0000,$0000,$0000
       02:6BD2  00 F8     
       02:6BD4  FF FF     
       02:6BD6  FF FF     
       02:6BD8  00 00     
       02:6BDA  00 00     
       02:6BDC  00 00     
       02:6BDE  00 00     
  737  02:6BE0  8E C0             dw $c08e,$c04f,$c05b,$c032,$c012,$c00c,$c003,$c000
       02:6BE2  4F C0     
       02:6BE4  5B C0     
       02:6BE6  32 C0     
       02:6BE8  12 C0     
       02:6BEA  0C C0     
       02:6BEC  03 C0     
       02:6BEE  00 C0     
  738  02:6BF0  00 80             dw $8000,$8000,$c000,$ffff,$0000,$0000,$0000,$0000
       02:6BF2  00 80     
       02:6BF4  00 C0     
       02:6BF6  FF FF     
       02:6BF8  00 00     
       02:6BFA  00 00     
       02:6BFC  00 00     
       02:6BFE  00 00     
  739  02:6C00  FA D6             dw $d6fa,$b4ba,$6dba,$fdfa,$fafa,$76fa,$bffa,$ffff
       02:6C02  BA B4     
       02:6C04  BA 6D     
       02:6C06  FA FD     
       02:6C08  FA FA     
       02:6C0A  FA 76     
       02:6C0C  FA BF     
       02:6C0E  FF FF     
  740  02:6C10  07 63             dw $6307,$0027,$fff8,$fffe,$0000,$0000,$0000,$0000
       02:6C12  27 00     
       02:6C14  F8 FF     
       02:6C16  FE FF     
       02:6C18  00 00     
       02:6C1A  00 00     
       02:6C1C  00 00     
       02:6C1E  00 00     
  741  02:6C20  D6 DF             dw $dfd6,$dfd6,$7fd6,$7bd6,$57b6,$ef76,$fef6,$0000
       02:6C22  D6 DF     
       02:6C24  D6 7F     
       02:6C26  D6 7B     
       02:6C28  B6 57     
       02:6C2A  76 EF     
       02:6C2C  F6 FE     
       02:6C2E  00 00     
  742  02:6C30  F8 9C             dw $9cf8,$ffd8,$0007,$fffe,$0000,$0000,$0000,$0000
       02:6C32  D8 FF     
       02:6C34  07 00     
       02:6C36  FE FF     
       02:6C38  00 00     
       02:6C3A  00 00     
       02:6C3C  00 00     
       02:6C3E  00 00     
  743  02:6C40  00 02             dw $0200,$8200,$e400,$fc00,$f800,$f000,$c000,$0000
       02:6C42  00 82     
       02:6C44  00 E4     
       02:6C46  00 FC     
       02:6C48  00 F8     
       02:6C4A  00 F0     
       02:6C4C  00 C0     
       02:6C4E  00 00     
  744  02:6C50  00 00             dw $0000,$0000,$ffff,$fffe,$0000,$0000,$0000,$0000
       02:6C52  00 00     
       02:6C54  FF FF     
       02:6C56  FE FF     
       02:6C58  00 00     
       02:6C5A  00 00     
       02:6C5C  00 00     
       02:6C5E  00 00     
  745  02:6C60  00 22             dw $2200,$a000,$e400,$7800,$5000,$6000,$8000,$0000
       02:6C62  00 A0     
       02:6C64  00 E4     
       02:6C66  00 78     
       02:6C68  00 50     
       02:6C6A  00 60     
       02:6C6C  00 80     
       02:6C6E  00 00     
  746  02:6C70  00 00             dw $0000,$0000,$0000,$fffe,$0000,$0000,$0000,$0000
       02:6C72  00 00     
       02:6C74  00 00     
       02:6C76  FE FF     
       02:6C78  00 00     
       02:6C7A  00 00     
       02:6C7C  00 00     
       02:6C7E  00 00     
  747                     
  748  02:6C80            spr_pattern_turret00:
  749  02:6C80  00 00             dw $0000,$0000,$0000,$0000,$0000,$0000,$0000,$0000
       02:6C82  00 00     
       02:6C84  00 00     
       02:6C86  00 00     
       02:6C88  00 00     
       02:6C8A  00 00     
       02:6C8C  00 00     
       02:6C8E  00 00     
  750  02:6C90  03 00             dw $0003,$000c,$0010,$0060,$004f,$00fc,$0018,$bc38
       02:6C92  0C 00     
       02:6C94  10 00     
       02:6C96  60 00     
       02:6C98  4F 00     
       02:6C9A  FC 00     
       02:6C9C  18 00     
       02:6C9E  38 BC     
  751  02:6CA0  00 00             dw $0000,$0000,$0000,$0000,$0000,$0000,$0000,$0000
       02:6CA2  00 00     
       02:6CA4  00 00     
       02:6CA6  00 00     
       02:6CA8  00 00     
       02:6CAA  00 00     
       02:6CAC  00 00     
       02:6CAE  00 00     
  752  02:6CB0  04 00             dw $0004,$0010,$0020,$0040,$0070,$00d3,$01f7,$c214
       02:6CB2  10 00     
       02:6CB4  20 00     
       02:6CB6  40 00     
       02:6CB8  70 00     
       02:6CBA  D3 00     
       02:6CBC  F7 01     
       02:6CBE  14 C2     
  753  02:6CC0  00 00             dw $0000,$0000,$0000,$0000,$0000,$0000,$0000,$0000
       02:6CC2  00 00     
       02:6CC4  00 00     
       02:6CC6  00 00     
       02:6CC8  00 00     
       02:6CCA  00 00     
       02:6CCC  00 00     
       02:6CCE  00 00     
  754  02:6CD0  07 00             dw $0007,$001f,$003f,$007f,$0078,$00e8,$fe08,$0008
       02:6CD2  1F 00     
       02:6CD4  3F 00     
       02:6CD6  7F 00     
       02:6CD8  78 00     
       02:6CDA  E8 00     
       02:6CDC  08 FE     
       02:6CDE  08 00     
  755  02:6CE0  00 00             dw $0000,$0000,$0000,$0000,$0000,$0000,$0000,$0000
       02:6CE2  00 00     
       02:6CE4  00 00     
       02:6CE6  00 00     
       02:6CE8  00 00     
       02:6CEA  00 00     
       02:6CEC  00 00     
       02:6CEE  00 00     
  756  02:6CF0  00 00             dw $0000,$0000,$0000,$0040,$0040,$00c0,$01e0,$01e3
       02:6CF2  00 00     
       02:6CF4  00 00     
       02:6CF6  40 00     
       02:6CF8  40 00     
       02:6CFA  C0 00     
       02:6CFC  E0 01     
       02:6CFE  E3 01     
  757  02:6D00  00 00             dw $0000,$0000,$0000,$0000,$0000,$0000,$0000,$0000
       02:6D02  00 00     
       02:6D04  00 00     
       02:6D06  00 00     
       02:6D08  00 00     
       02:6D0A  00 00     
       02:6D0C  00 00     
       02:6D0E  00 00     
  758  02:6D10  00 FE             dw $fe00,$0180,$0c40,$1e40,$3f40,$3f20,$1e20,$0ca0
       02:6D12  80 01     
       02:6D14  40 0C     
       02:6D16  40 1E     
       02:6D18  40 3F     
       02:6D1A  20 3F     
       02:6D1C  20 1E     
       02:6D1E  A0 0C     
  759  02:6D20  00 00             dw $0000,$0000,$0000,$0000,$0000,$0000,$0000,$0000
       02:6D22  00 00     
       02:6D24  00 00     
       02:6D26  00 00     
       02:6D28  00 00     
       02:6D2A  00 00     
       02:6D2C  00 00     
       02:6D2E  00 00     
  760  02:6D30  00 00             dw $0000,$0000,$0c00,$1200,$e900,$e500,$f380,$5f00
       02:6D32  00 00     
       02:6D34  00 0C     
       02:6D36  00 12     
       02:6D38  00 E9     
       02:6D3A  00 E5     
       02:6D3C  80 F3     
       02:6D3E  00 5F     
  761  02:6D40  00 00             dw $0000,$0000,$0000,$0000,$0000,$0000,$0000,$0000
       02:6D42  00 00     
       02:6D44  00 00     
       02:6D46  00 00     
       02:6D48  00 00     
       02:6D4A  00 00     
       02:6D4C  00 00     
       02:6D4E  00 00     
  762  02:6D50  00 FE             dw $fe00,$ff80,$f3c0,$e1c0,$00c0,$00e0,$0060,$0060
       02:6D52  80 FF     
       02:6D54  C0 F3     
       02:6D56  C0 E1     
       02:6D58  C0 00     
       02:6D5A  E0 00     
       02:6D5C  60 00     
       02:6D5E  60 00     
  763  02:6D60  00 00             dw $0000,$0000,$0000,$0000,$0000,$0000,$0000,$0000
       02:6D62  00 00     
       02:6D64  00 00     
       02:6D66  00 00     
       02:6D68  00 00     
       02:6D6A  00 00     
       02:6D6C  00 00     
       02:6D6E  00 00     
  764  02:6D70  00 00             dw $0000,$0000,$0000,$0000,$0000,$0000,$0000,$a000
       02:6D72  00 00     
       02:6D74  00 00     
       02:6D76  00 00     
       02:6D78  00 00     
       02:6D7A  00 00     
       02:6D7C  00 00     
       02:6D7E  00 A0     
  765  02:6D80  10 FE             dw $fe10,$00d4,$3fc4,$ffe0,$0ff0,$00fc,$007f,$003f
       02:6D82  D4 00     
       02:6D84  C4 3F     
       02:6D86  E0 FF     
       02:6D88  F0 0F     
       02:6D8A  FC 00     
       02:6D8C  7F 00     
       02:6D8E  3F 00     
  766  02:6D90  0F 00             dw $000f,$0000,$0000,$0000,$0000,$0000,$0000,$0000
       02:6D92  00 00     
       02:6D94  00 00     
       02:6D96  00 00     
       02:6D98  00 00     
       02:6D9A  00 00     
       02:6D9C  00 00     
       02:6D9E  00 00     
  767  02:6DA0  FD 01             dw $01fd,$00f9,$3ff8,$ffff,$0fff,$00ff,$007f,$003f
       02:6DA2  F9 00     
       02:6DA4  F8 3F     
       02:6DA6  FF FF     
       02:6DA8  FF 0F     
       02:6DAA  FF 00     
       02:6DAC  7F 00     
       02:6DAE  3F 00     
  768  02:6DB0  0F 00             dw $000f,$0000,$0000,$0000,$0000,$0000,$0000,$0000
       02:6DB2  00 00     
       02:6DB4  00 00     
       02:6DB6  00 00     
       02:6DB8  00 00     
       02:6DBA  00 00     
       02:6DBC  00 00     
       02:6DBE  00 00     
  769  02:6DC0  09 FE             dw $fe09,$00e9,$3ff8,$ffff,$0ffe,$00ff,$007f,$003f
       02:6DC2  E9 00     
       02:6DC4  F8 3F     
       02:6DC6  FF FF     
       02:6DC8  FE 0F     
       02:6DCA  FF 00     
       02:6DCC  7F 00     
       02:6DCE  3F 00     
  770  02:6DD0  0F 00             dw $000f,$0000,$0000,$0000,$0000,$0000,$0000,$0000
       02:6DD2  00 00     
       02:6DD4  00 00     
       02:6DD6  00 00     
       02:6DD8  00 00     
       02:6DDA  00 00     
       02:6DDC  00 00     
       02:6DDE  00 00     
  771  02:6DE0  E3 01             dw $01e3,$00c3,$3fc3,$ffc0,$0fe1,$00f0,$007c,$003f
       02:6DE2  C3 00     
       02:6DE4  C3 3F     
       02:6DE6  C0 FF     
       02:6DE8  E1 0F     
       02:6DEA  F0 00     
       02:6DEC  7C 00     
       02:6DEE  3F 00     
  772  02:6DF0  0F 00             dw $000f,$0000,$0000,$0000,$0000,$0000,$0000,$0000
       02:6DF2  00 00     
       02:6DF4  00 00     
       02:6DF6  00 00     
       02:6DF8  00 00     
       02:6DFA  00 00     
       02:6DFC  00 00     
       02:6DFE  00 00     
  773  02:6E00  A0 00             dw $00a0,$01e0,$0580,$07c0,$fbc0,$0280,$f900,$fe00
       02:6E02  E0 01     
       02:6E04  80 05     
       02:6E06  C0 07     
       02:6E08  C0 FB     
       02:6E0A  80 02     
       02:6E0C  00 F9     
       02:6E0E  00 FE     
  774  02:6E10  00 F8             dw $f800,$0000,$0000,$0000,$0000,$0000,$0000,$0000
       02:6E12  00 00     
       02:6E14  00 00     
       02:6E16  00 00     
       02:6E18  00 00     
       02:6E1A  00 00     
       02:6E1C  00 00     
       02:6E1E  00 00     
  775  02:6E20  00 5F             dw $5f00,$5e00,$5a00,$f800,$0400,$fd00,$ff00,$fe00
       02:6E22  00 5E     
       02:6E24  00 5A     
       02:6E26  00 F8     
       02:6E28  00 04     
       02:6E2A  00 FD     
       02:6E2C  00 FF     
       02:6E2E  00 FE     
  776  02:6E30  00 F8             dw $f800,$0000,$0000,$0000,$0000,$0000,$0000,$0000
       02:6E32  00 00     
       02:6E34  00 00     
       02:6E36  00 00     
       02:6E38  00 00     
       02:6E3A  00 00     
       02:6E3C  00 00     
       02:6E3E  00 00     
  777  02:6E40  60 00             dw $0060,$00e0,$00c0,$ffc0,$03c0,$ff80,$ff00,$fe00
       02:6E42  E0 00     
       02:6E44  C0 00     
       02:6E46  C0 FF     
       02:6E48  C0 03     
       02:6E4A  80 FF     
       02:6E4C  00 FF     
       02:6E4E  00 FE     
  778  02:6E50  00 F8             dw $f800,$0000,$0000,$0000,$0000,$0000,$0000,$0000
       02:6E52  00 00     
       02:6E54  00 00     
       02:6E56  00 00     
       02:6E58  00 00     
       02:6E5A  00 00     
       02:6E5C  00 00     
       02:6E5E  00 00     
  779  02:6E60  00 A0             dw $a000,$a000,$a000,$0000,$fc00,$0000,$0100,$fe00
       02:6E62  00 A0     
       02:6E64  00 A0     
       02:6E66  00 00     
       02:6E68  00 FC     
       02:6E6A  00 00     
       02:6E6C  00 01     
       02:6E6E  00 FE     
  780  02:6E70  00 F8             dw $f800,$0000,$0000,$0000,$0000,$0000,$0000,$0000
       02:6E72  00 00     
       02:6E74  00 00     
       02:6E76  00 00     
       02:6E78  00 00     
       02:6E7A  00 00     
       02:6E7C  00 00     
       02:6E7E  00 00     
  781                     
  782  02:6E80            spr_pattern_turret01:
  783  02:6E80  00 00             dw $0000,$0000,$0000,$0000,$0000,$0000,$0000,$0006
       02:6E82  00 00     
       02:6E84  00 00     
       02:6E86  00 00     
       02:6E88  00 00     
       02:6E8A  00 00     
       02:6E8C  00 00     
       02:6E8E  06 00     
  784  02:6E90  09 20             dw $2009,$5810,$3635,$8e0c,$6028,$1f8b,$0ff4,$0398
       02:6E92  10 58     
       02:6E94  35 36     
       02:6E96  0C 8E     
       02:6E98  28 60     
       02:6E9A  8B 1F     
       02:6E9C  F4 0F     
       02:6E9E  98 03     
  785  02:6EA0  00 00             dw $0000,$0000,$0000,$0000,$0000,$0000,$0000,$0000
       02:6EA2  00 00     
       02:6EA4  00 00     
       02:6EA6  00 00     
       02:6EA8  00 00     
       02:6EAA  00 00     
       02:6EAC  00 00     
       02:6EAE  00 00     
  786  02:6EB0  00 40             dw $4000,$2018,$09e3,$803b,$6197,$1ff4,$0fe8,$03e2
       02:6EB2  18 20     
       02:6EB4  E3 09     
       02:6EB6  3B 80     
       02:6EB8  97 61     
       02:6EBA  F4 1F     
       02:6EBC  E8 0F     
       02:6EBE  E2 03     
  787  02:6EC0  00 00             dw $0000,$0000,$0000,$0000,$0000,$0000,$0000,$2006
       02:6EC2  00 00     
       02:6EC4  00 00     
       02:6EC6  00 00     
       02:6EC8  00 00     
       02:6ECA  00 00     
       02:6ECC  00 00     
       02:6ECE  06 20     
  788  02:6ED0  0F 18             dw $180f,$471f,$303c,$8e04,$6008,$1f88,$0fd0,$03f2
       02:6ED2  1F 47     
       02:6ED4  3C 30     
       02:6ED6  04 8E     
       02:6ED8  08 60     
       02:6EDA  88 1F     
       02:6EDC  D0 0F     
       02:6EDE  F2 03     
  789  02:6EE0  00 00             dw $0000,$0000,$0000,$0000,$0000,$0000,$0000,$0000
       02:6EE2  00 00     
       02:6EE4  00 00     
       02:6EE6  00 00     
       02:6EE8  00 00     
       02:6EEA  00 00     
       02:6EEC  00 00     
       02:6EEE  00 00     
  790  02:6EF0  00 00             dw $0000,$0010,$00e0,$81f0,$61e0,$1fe0,$0fc3,$0387
       02:6EF2  10 00     
       02:6EF4  E0 00     
       02:6EF6  F0 81     
       02:6EF8  E0 61     
       02:6EFA  E0 1F     
       02:6EFC  C3 0F     
       02:6EFE  87 03     
  791  02:6F00  00 00             dw $0000,$0000,$0000,$0000,$0000,$0000,$0000,$0000
       02:6F02  00 00     
       02:6F04  00 00     
       02:6F06  00 00     
       02:6F08  00 00     
       02:6F0A  00 00     
       02:6F0C  00 00     
       02:6F0E  00 00     
  792  02:6F10  00 C0             dw $c000,$3000,$0c00,$0f00,$1e80,$bf40,$3f40,$1f40
       02:6F12  00 30     
       02:6F14  00 0C     
       02:6F16  00 0F     
       02:6F18  80 1E     
       02:6F1A  40 BF     
       02:6F1C  40 3F     
       02:6F1E  40 1F     
  793  02:6F20  00 00             dw $0000,$0000,$0000,$0000,$0000,$0000,$0000,$0000
       02:6F22  00 00     
       02:6F24  00 00     
       02:6F26  00 00     
       02:6F28  00 00     
       02:6F2A  00 00     
       02:6F2C  00 00     
       02:6F2E  00 00     
  794  02:6F30  00 00             dw $0000,$0000,$0000,$cc00,$fa00,$6900,$e500,$b700
       02:6F32  00 00     
       02:6F34  00 00     
       02:6F36  00 CC     
       02:6F38  00 FA     
       02:6F3A  00 69     
       02:6F3C  00 E5     
       02:6F3E  00 B7     
  795  02:6F40  00 00             dw $0000,$0000,$0000,$0000,$0000,$0000,$0000,$0000
       02:6F42  00 00     
       02:6F44  00 00     
       02:6F46  00 00     
       02:6F48  00 00     
       02:6F4A  00 00     
       02:6F4C  00 00     
       02:6F4E  00 00     
  796  02:6F50  00 C0             dw $c000,$f000,$fc00,$3300,$0180,$00c0,$00c0,$00c0
       02:6F52  00 F0     
       02:6F54  00 FC     
       02:6F56  00 33     
       02:6F58  80 01     
       02:6F5A  C0 00     
       02:6F5C  C0 00     
       02:6F5E  C0 00     
  797  02:6F60  00 00             dw $0000,$0000,$0000,$0000,$0000,$0000,$0000,$0000
       02:6F62  00 00     
       02:6F64  00 00     
       02:6F66  00 00     
       02:6F68  00 00     
       02:6F6A  00 00     
       02:6F6C  00 00     
       02:6F6E  00 00     
  798  02:6F70  00 00             dw $0000,$0000,$0000,$0000,$0000,$0000,$0000,$4000
       02:6F72  00 00     
       02:6F74  00 00     
       02:6F76  00 00     
       02:6F78  00 00     
       02:6F7A  00 00     
       02:6F7C  00 00     
       02:6F7E  00 40     
  799  02:6F80  D8 01             dw $01d8,$01c1,$01c0,$01e2,$01f9,$00fe,$007f,$001f
       02:6F82  C1 01     
       02:6F84  C0 01     
       02:6F86  E2 01     
       02:6F88  F9 01     
       02:6F8A  FE 00     
       02:6F8C  7F 00     
       02:6F8E  1F 00     
  800  02:6F90  07 00             dw $0007,$0000,$0000,$0000,$0000,$0000,$0000,$0000
       02:6F92  00 00     
       02:6F94  00 00     
       02:6F96  00 00     
       02:6F98  00 00     
       02:6F9A  00 00     
       02:6F9C  00 00     
       02:6F9E  00 00     
  801  02:6FA0  F2 01             dw $01f2,$01f8,$01ff,$01fd,$01fe,$00ff,$007f,$001f
       02:6FA2  F8 01     
       02:6FA4  FF 01     
       02:6FA6  FD 01     
       02:6FA8  FE 01     
       02:6FAA  FF 00     
       02:6FAC  7F 00     
       02:6FAE  1F 00     
  802  02:6FB0  07 00             dw $0007,$0000,$0000,$0000,$0000,$0000,$0000,$0000
       02:6FB2  00 00     
       02:6FB4  00 00     
       02:6FB6  00 00     
       02:6FB8  00 00     
       02:6FBA  00 00     
       02:6FBC  00 00     
       02:6FBE  00 00     
  803  02:6FC0  E2 01             dw $01e2,$01f8,$01fe,$01f9,$01fe,$00ff,$007f,$001f
       02:6FC2  F8 01     
       02:6FC4  FE 01     
       02:6FC6  F9 01     
       02:6FC8  FE 01     
       02:6FCA  FF 00     
       02:6FCC  7F 00     
       02:6FCE  1F 00     
  804  02:6FD0  07 00             dw $0007,$0000,$0000,$0000,$0000,$0000,$0000,$0000
       02:6FD2  00 00     
       02:6FD4  00 00     
       02:6FD6  00 00     
       02:6FD8  00 00     
       02:6FDA  00 00     
       02:6FDC  00 00     
       02:6FDE  00 00     
  805  02:6FE0  87 01             dw $0187,$0186,$0180,$01c6,$01e1,$00f8,$007e,$001f
       02:6FE2  86 01     
       02:6FE4  80 01     
       02:6FE6  C6 01     
       02:6FE8  E1 01     
       02:6FEA  F8 00     
       02:6FEC  7E 00     
       02:6FEE  1F 00     
  806  02:6FF0  07 00             dw $0007,$0000,$0000,$0000,$0000,$0000,$0000,$0000
       02:6FF2  00 00     
       02:6FF4  00 00     
       02:6FF6  00 00     
       02:6FF8  00 00     
       02:6FFA  00 00     
       02:6FFC  00 00     
       02:6FFE  00 00     
  807  02:7000  40 0E             dw $0e40,$0040,$4040,$0880,$c300,$0200,$c000,$fc00
       02:7002  40 00     
       02:7004  40 40     
       02:7006  80 08     
       02:7008  00 C3     
       02:700A  00 02     
       02:700C  00 C0     
       02:700E  00 FC     
  808  02:7010  00 F8             dw $f800,$f000,$0000,$0000,$0000,$0000,$0000,$0000
       02:7012  00 F0     
       02:7014  00 00     
       02:7016  00 00     
       02:7018  00 00     
       02:701A  00 00     
       02:701C  00 00     
       02:701E  00 00     
  809  02:7020  00 BF             dw $bf00,$3f00,$3e00,$f600,$3c80,$fd00,$fe00,$fc00
       02:7022  00 3F     
       02:7024  00 3E     
       02:7026  00 F6     
       02:7028  80 3C     
       02:702A  00 FD     
       02:702C  00 FE     
       02:702E  00 FC     
  810  02:7030  00 F8             dw $f800,$f000,$0000,$0000,$0000,$0000,$0000,$0000
       02:7032  00 F0     
       02:7034  00 00     
       02:7036  00 00     
       02:7038  00 00     
       02:703A  00 00     
       02:703C  00 00     
       02:703E  00 00     
  811  02:7040  C0 00             dw $00c0,$00c0,$01c0,$c180,$3380,$df00,$fe00,$fc00
       02:7042  C0 00     
       02:7044  C0 01     
       02:7046  80 C1     
       02:7048  80 33     
       02:704A  00 DF     
       02:704C  00 FE     
       02:704E  00 FC     
  812  02:7050  00 F8             dw $f800,$f000,$0000,$0000,$0000,$0000,$0000,$0000
       02:7052  00 F0     
       02:7054  00 00     
       02:7056  00 00     
       02:7058  00 00     
       02:705A  00 00     
       02:705C  00 00     
       02:705E  00 00     
  813  02:7060  00 40             dw $4000,$c000,$8000,$0000,$c000,$2000,$0000,$c000
       02:7062  00 C0     
       02:7064  00 80     
       02:7066  00 00     
       02:7068  00 C0     
       02:706A  00 20     
       02:706C  00 00     
       02:706E  00 C0     
  814  02:7070  00 F8             dw $f800,$f000,$0000,$0000,$0000,$0000,$0000,$0000
       02:7072  00 F0     
       02:7074  00 00     
       02:7076  00 00     
       02:7078  00 00     
       02:707A  00 00     
       02:707C  00 00     
       02:707E  00 00     
  815                     
  816  02:7080            spr_pattern_turret02:
  817  02:7080  00 00             dw $0000,$0000,$0000,$0800,$1e00,$4f00,$2700,$1383
       02:7082  00 00     
       02:7084  00 00     
       02:7086  00 08     
       02:7088  00 1E     
       02:708A  00 4F     
       02:708C  00 27     
       02:708E  83 13     
  818  02:7090  E4 09             dw $09e4,$0e87,$07cf,$07f8,$03f0,$03b8,$0380,$0380
       02:7092  87 0E     
       02:7094  CF 07     
       02:7096  F8 07     
       02:7098  F0 03     
       02:709A  B8 03     
       02:709C  80 03     
       02:709E  80 03     
  819  02:70A0  00 00             dw $0000,$0000,$0000,$0400,$1400,$4a00,$2580,$12e0
       02:70A2  00 00     
       02:70A4  00 00     
       02:70A6  00 04     
       02:70A8  00 14     
       02:70AA  00 4A     
       02:70AC  80 25     
       02:70AE  E0 12     
  820  02:70B0  1C 09             dw $091c,$0ede,$07fc,$079f,$03fd,$03e2,$03f6,$03f9
       02:70B2  DE 0E     
       02:70B4  FC 07     
       02:70B6  9F 07     
       02:70B8  FD 03     
       02:70BA  E2 03     
       02:70BC  F6 03     
       02:70BE  F9 03     
  821  02:70C0  00 00             dw $0000,$0000,$0400,$0a00,$1900,$4c80,$2640,$1303
       02:70C2  00 00     
       02:70C4  00 04     
       02:70C6  00 0A     
       02:70C8  00 19     
       02:70CA  80 4C     
       02:70CC  40 26     
       02:70CE  03 13     
  822  02:70D0  8F 09             dw $098f,$0e8a,$07c4,$07e8,$03d0,$03e2,$03e6,$03f0
       02:70D2  8A 0E     
       02:70D4  C4 07     
       02:70D6  E8 07     
       02:70D8  D0 03     
       02:70DA  E2 03     
       02:70DC  E6 03     
       02:70DE  F0 03     
  823  02:70E0  00 00             dw $0000,$0000,$0000,$0000,$0000,$4000,$2000,$1020
       02:70E2  00 00     
       02:70E4  00 00     
       02:70E6  00 00     
       02:70E8  00 00     
       02:70EA  00 40     
       02:70EC  00 20     
       02:70EE  20 10     
  824  02:70F0  70 08             dw $0870,$0e70,$07f0,$0780,$0382,$0307,$030f,$0306
       02:70F2  70 0E     
       02:70F4  F0 07     
       02:70F6  80 07     
       02:70F8  82 03     
       02:70FA  07 03     
       02:70FC  0F 03     
       02:70FE  06 03     
  825  02:7100  00 00             dw $0000,$0000,$0000,$0000,$0000,$0000,$0000,$8000
       02:7102  00 00     
       02:7104  00 00     
       02:7106  00 00     
       02:7108  00 00     
       02:710A  00 00     
       02:710C  00 00     
       02:710E  00 80     
  826  02:7110  00 60             dw $6000,$1000,$8800,$4400,$0200,$3d00,$7f80,$3f40
       02:7112  00 10     
       02:7114  00 88     
       02:7116  00 44     
       02:7118  00 02     
       02:711A  00 3D     
       02:711C  80 7F     
       02:711E  40 3F     
  827  02:7120  00 00             dw $0000,$0000,$0000,$0000,$0000,$0000,$0000,$0000
       02:7122  00 00     
       02:7124  00 00     
       02:7126  00 00     
       02:7128  00 00     
       02:712A  00 00     
       02:712C  00 00     
       02:712E  00 00     
  828  02:7130  00 00             dw $0000,$0000,$0000,$8000,$e000,$dc00,$b700,$2500
       02:7132  00 00     
       02:7134  00 00     
       02:7136  00 80     
       02:7138  00 E0     
       02:713A  00 DC     
       02:713C  00 B7     
       02:713E  00 25     
  829  02:7140  00 00             dw $0000,$0000,$0000,$0000,$0000,$0000,$0000,$8000
       02:7142  00 00     
       02:7144  00 00     
       02:7146  00 00     
       02:7148  00 00     
       02:714A  00 00     
       02:714C  00 00     
       02:714E  00 80     
  830  02:7150  00 E0             dw $e000,$f000,$7800,$3c00,$1e00,$0300,$0080,$00c0
       02:7152  00 F0     
       02:7154  00 78     
       02:7156  00 3C     
       02:7158  00 1E     
       02:715A  00 03     
       02:715C  80 00     
       02:715E  C0 00     
  831  02:7160  00 00             dw $0000,$0000,$0000,$0000,$0000,$0000,$0000,$0000
       02:7162  00 00     
       02:7164  00 00     
       02:7166  00 00     
       02:7168  00 00     
       02:716A  00 00     
       02:716C  00 00     
       02:716E  00 00     
  832  02:7170  00 00             dw $0000,$0000,$0000,$0000,$0000,$0000,$0000,$c000
       02:7172  00 00     
       02:7174  00 00     
       02:7176  00 00     
       02:7178  00 00     
       02:717A  00 00     
       02:717C  00 00     
       02:717E  00 C0     
  833  02:7180  C4 03             dw $03c4,$03d0,$01e5,$01f2,$00f8,$007d,$003e,$001f
       02:7182  D0 03     
       02:7184  E5 01     
       02:7186  F2 01     
       02:7188  F8 00     
       02:718A  7D 00     
       02:718C  3E 00     
       02:718E  1F 00     
  834  02:7190  0F 00             dw $000f,$0007,$0003,$0000,$0000,$0000,$0000,$0000
       02:7192  07 00     
       02:7194  03 00     
       02:7196  00 00     
       02:7198  00 00     
       02:719A  00 00     
       02:719C  00 00     
       02:719E  00 00     
  835  02:71A0  FA 03             dw $03fa,$03fe,$01fa,$01fd,$00ff,$007f,$003f,$001f
       02:71A2  FE 03     
       02:71A4  FA 01     
       02:71A6  FD 01     
       02:71A8  FF 00     
       02:71AA  7F 00     
       02:71AC  3F 00     
       02:71AE  1F 00     
  836  02:71B0  0F 00             dw $000f,$0007,$0003,$0000,$0000,$0000,$0000,$0000
       02:71B2  07 00     
       02:71B4  03 00     
       02:71B6  00 00     
       02:71B8  00 00     
       02:71BA  00 00     
       02:71BC  00 00     
       02:71BE  00 00     
  837  02:71C0  F8 03             dw $03f8,$03e4,$01f2,$01f9,$00fc,$007e,$003f,$001f
       02:71C2  E4 03     
       02:71C4  F2 01     
       02:71C6  F9 01     
       02:71C8  FC 00     
       02:71CA  7E 00     
       02:71CC  3F 00     
       02:71CE  1F 00     
  838  02:71D0  0F 00             dw $000f,$0007,$0003,$0000,$0000,$0000,$0000,$0000
       02:71D2  07 00     
       02:71D4  03 00     
       02:71D6  00 00     
       02:71D8  00 00     
       02:71DA  00 00     
       02:71DC  00 00     
       02:71DE  00 00     
  839  02:71E0  81 03             dw $0381,$0399,$01cc,$01e6,$00f3,$0079,$003c,$001e
       02:71E2  99 03     
       02:71E4  CC 01     
       02:71E6  E6 01     
       02:71E8  F3 00     
       02:71EA  79 00     
       02:71EC  3C 00     
       02:71EE  1E 00     
  840  02:71F0  0F 00             dw $000f,$0007,$0003,$0000,$0000,$0000,$0000,$0000
       02:71F2  07 00     
       02:71F4  03 00     
       02:71F6  00 00     
       02:71F8  00 00     
       02:71FA  00 00     
       02:71FC  00 00     
       02:71FE  00 00     
  841  02:7200  40 3F             dw $3f40,$1e40,$0c40,$8180,$4300,$0400,$0800,$0000
       02:7202  40 1E     
       02:7204  40 0C     
       02:7206  80 81     
       02:7208  00 43     
       02:720A  00 04     
       02:720C  00 08     
       02:720E  00 00     
  842  02:7210  00 F0             dw $f000,$e000,$c000,$0000,$0000,$0000,$0000,$0000
       02:7212  00 E0     
       02:7214  00 C0     
       02:7216  00 00     
       02:7218  00 00     
       02:721A  00 00     
       02:721C  00 00     
       02:721E  00 00     
  843  02:7220  00 65             dw $6500,$f600,$fe00,$7e00,$bc00,$fa00,$f400,$f800
       02:7222  00 F6     
       02:7224  00 FE     
       02:7226  00 7E     
       02:7228  00 BC     
       02:722A  00 FA     
       02:722C  00 F4     
       02:722E  00 F8     
  844  02:7230  00 F0             dw $f000,$e000,$c000,$0000,$0000,$0000,$0000,$0000
       02:7232  00 E0     
       02:7234  00 C0     
       02:7236  00 00     
       02:7238  00 00     
       02:723A  00 00     
       02:723C  00 00     
       02:723E  00 00     
  845  02:7240  C0 00             dw $00c0,$01c0,$01c0,$0180,$8300,$c600,$fc00,$f800
       02:7242  C0 01     
       02:7244  C0 01     
       02:7246  80 01     
       02:7248  00 83     
       02:724A  00 C6     
       02:724C  00 FC     
       02:724E  00 F8     
  846  02:7250  00 F0             dw $f000,$e000,$c000,$0000,$0000,$0000,$0000,$0000
       02:7252  00 E0     
       02:7254  00 C0     
       02:7256  00 00     
       02:7258  00 00     
       02:725A  00 00     
       02:725C  00 00     
       02:725E  00 00     
  847  02:7260  00 80             dw $8000,$0000,$0000,$0000,$0000,$0000,$0000,$0000
       02:7262  00 00     
       02:7264  00 00     
       02:7266  00 00     
       02:7268  00 00     
       02:726A  00 00     
       02:726C  00 00     
       02:726E  00 00     
  848  02:7270  00 00             dw $0000,$e000,$c000,$0000,$0000,$0000,$0000,$0000
       02:7272  00 E0     
       02:7274  00 C0     
       02:7276  00 00     
       02:7278  00 00     
       02:727A  00 00     
       02:727C  00 00     
       02:727E  00 00     
  849                     
  850  02:7280            spr_pattern_turret03:
  851  02:7280  00 00             dw $0000,$0040,$0060,$0150,$0130,$01b0,$00a0,$00c0
       02:7282  40 00     
       02:7284  60 00     
       02:7286  50 01     
       02:7288  30 01     
       02:728A  B0 01     
       02:728C  A0 00     
       02:728E  C0 00     
  852  02:7290  41 00             dw $0041,$00f5,$00f5,$00eb,$00fd,$00c0,$01c0,$01c0
       02:7292  F5 00     
       02:7294  F5 00     
       02:7296  EB 00     
       02:7298  FD 00     
       02:729A  C0 00     
       02:729C  C0 01     
       02:729E  C0 01     
  853  02:72A0  00 00             dw $0000,$0020,$0000,$0120,$0100,$0180,$0094,$00d4
       02:72A2  20 00     
       02:72A4  00 00     
       02:72A6  20 01     
       02:72A8  00 01     
       02:72AA  80 01     
       02:72AC  94 00     
       02:72AE  D4 00     
  854  02:72B0  53 00             dw $0053,$00fa,$00eb,$00fc,$00fa,$00fc,$01f2,$01f5
       02:72B2  FA 00     
       02:72B4  EB 00     
       02:72B6  FC 00     
       02:72B8  FA 00     
       02:72BA  FC 00     
       02:72BC  F2 01     
       02:72BE  F5 01     
  855  02:72C0  00 00             dw $0000,$0050,$0050,$0148,$0128,$01a8,$00a0,$00c0
       02:72C2  50 00     
       02:72C4  50 00     
       02:72C6  48 01     
       02:72C8  28 01     
       02:72CA  A8 01     
       02:72CC  A0 00     
       02:72CE  C0 00     
  856  02:72D0  41 00             dw $0041,$00f1,$00f4,$00f3,$00fc,$00f0,$01f2,$01f4
       02:72D2  F1 00     
       02:72D4  F4 00     
       02:72D6  F3 00     
       02:72D8  FC 00     
       02:72DA  F0 00     
       02:72DC  F2 01     
       02:72DE  F4 01     
  857  02:72E0  00 00             dw $0000,$0000,$0000,$0100,$0100,$0180,$008c,$00dc
       02:72E2  00 00     
       02:72E4  00 00     
       02:72E6  00 01     
       02:72E8  00 01     
       02:72EA  80 01     
       02:72EC  8C 00     
       02:72EE  DC 00     
  858  02:72F0  5F 00             dw $005f,$00fe,$00e8,$00c0,$00c0,$0083,$018f,$018e
       02:72F2  FE 00     
       02:72F4  E8 00     
       02:72F6  C0 00     
       02:72F8  C0 00     
       02:72FA  83 00     
       02:72FC  8F 01     
       02:72FE  8E 01     
  859  02:7300  00 00             dw $0000,$0000,$0000,$0000,$0000,$0000,$0000,$0000
       02:7302  00 00     
       02:7304  00 00     
       02:7306  00 00     
       02:7308  00 00     
       02:730A  00 00     
       02:730C  00 00     
       02:730E  00 00     
  860  02:7310  00 E0             dw $e000,$1800,$0400,$c400,$2200,$1200,$0100,$1900
       02:7312  00 18     
       02:7314  00 04     
       02:7316  00 C4     
       02:7318  00 22     
       02:731A  00 12     
       02:731C  00 01     
       02:731E  00 19     
  861  02:7320  00 00             dw $0000,$0000,$0000,$0000,$0000,$0000,$0000,$0000
       02:7322  00 00     
       02:7324  00 00     
       02:7326  00 00     
       02:7328  00 00     
       02:732A  00 00     
       02:732C  00 00     
       02:732E  00 00     
  862  02:7330  00 00             dw $0000,$0000,$0000,$0000,$c000,$e000,$f000,$f800
       02:7332  00 00     
       02:7334  00 00     
       02:7336  00 00     
       02:7338  00 C0     
       02:733A  00 E0     
       02:733C  00 F0     
       02:733E  00 F8     
  863  02:7340  00 00             dw $0000,$0000,$0000,$0000,$0000,$0000,$0000,$0000
       02:7342  00 00     
       02:7344  00 00     
       02:7346  00 00     
       02:7348  00 00     
       02:734A  00 00     
       02:734C  00 00     
       02:734E  00 00     
  864  02:7350  00 E0             dw $e000,$f800,$fc00,$3c00,$1e00,$0e00,$0f00,$0700
       02:7352  00 F8     
       02:7354  00 FC     
       02:7356  00 3C     
       02:7358  00 1E     
       02:735A  00 0E     
       02:735C  00 0F     
       02:735E  00 07     
  865  02:7360  00 00             dw $0000,$0000,$0000,$0000,$0000,$0000,$0000,$0000
       02:7362  00 00     
       02:7364  00 00     
       02:7366  00 00     
       02:7368  00 00     
       02:736A  00 00     
       02:736C  00 00     
       02:736E  00 00     
  866  02:7370  00 00             dw $0000,$0000,$0000,$0000,$0000,$0000,$0000,$0000
       02:7372  00 00     
       02:7374  00 00     
       02:7376  00 00     
       02:7378  00 00     
       02:737A  00 00     
       02:737C  00 00     
       02:737E  00 00     
  867  02:7380  C0 01             dw $01c0,$01e0,$01e8,$00fa,$00f0,$0079,$007c,$003c
       02:7382  E0 01     
       02:7384  E8 01     
       02:7386  FA 00     
       02:7388  F0 00     
       02:738A  79 00     
       02:738C  7C 00     
       02:738E  3C 00     
  868  02:7390  1F 00             dw $001f,$001f,$000f,$0000,$0000,$0000,$0000,$0000
       02:7392  1F 00     
       02:7394  0F 00     
       02:7396  00 00     
       02:7398  00 00     
       02:739A  00 00     
       02:739C  00 00     
       02:739E  00 00     
  869  02:73A0  FA 01             dw $01fa,$01fc,$01f7,$00f5,$00ff,$007e,$007f,$003f
       02:73A2  FC 01     
       02:73A4  F7 01     
       02:73A6  F5 00     
       02:73A8  FF 00     
       02:73AA  7E 00     
       02:73AC  7F 00     
       02:73AE  3F 00     
  870  02:73B0  1F 00             dw $001f,$001f,$000f,$0000,$0000,$0000,$0000,$0000
       02:73B2  1F 00     
       02:73B4  0F 00     
       02:73B6  00 00     
       02:73B8  00 00     
       02:73BA  00 00     
       02:73BC  00 00     
       02:73BE  00 00     
  871  02:73C0  F8 01             dw $01f8,$01e8,$01f4,$00f4,$00fa,$007e,$007f,$003f
       02:73C2  E8 01     
       02:73C4  F4 01     
       02:73C6  F4 00     
       02:73C8  FA 00     
       02:73CA  7E 00     
       02:73CC  7F 00     
       02:73CE  3F 00     
  872  02:73D0  1F 00             dw $001f,$001f,$000f,$0000,$0000,$0000,$0000,$0000
       02:73D2  1F 00     
       02:73D4  0F 00     
       02:73D6  00 00     
       02:73D8  00 00     
       02:73DA  00 00     
       02:73DC  00 00     
       02:73DE  00 00     
  873  02:73E0  85 01             dw $0185,$01d3,$01c8,$00e8,$00e4,$0070,$0078,$0038
       02:73E2  D3 01     
       02:73E4  C8 01     
       02:73E6  E8 00     
       02:73E8  E4 00     
       02:73EA  70 00     
       02:73EC  78 00     
       02:73EE  38 00     
  874  02:73F0  1C 00             dw $001c,$001f,$000f,$0000,$0000,$0000,$0000,$0000
       02:73F2  1F 00     
       02:73F4  0F 00     
       02:73F6  00 00     
       02:73F8  00 00     
       02:73FA  00 00     
       02:73FC  00 00     
       02:73FE  00 00     
  875  02:7400  00 3D             dw $3d00,$7e80,$7e80,$3c80,$1880,$0100,$1e00,$0000
       02:7402  80 7E     
       02:7404  80 7E     
       02:7406  80 3C     
       02:7408  80 18     
       02:740A  00 01     
       02:740C  00 1E     
       02:740E  00 00     
  876  02:7410  00 F8             dw $f800,$f000,$c000,$0000,$0000,$0000,$0000,$0000
       02:7412  00 F0     
       02:7414  00 C0     
       02:7416  00 00     
       02:7418  00 00     
       02:741A  00 00     
       02:741C  00 00     
       02:741E  00 00     
  877  02:7420  00 6C             dw $6c00,$ca00,$d200,$f400,$fc00,$f800,$e000,$fc00
       02:7422  00 CA     
       02:7424  00 D2     
       02:7426  00 F4     
       02:7428  00 FC     
       02:742A  00 F8     
       02:742C  00 E0     
       02:742E  00 FC     
  878  02:7430  00 F8             dw $f800,$f000,$c000,$0000,$0000,$0000,$0000,$0000
       02:7432  00 F0     
       02:7434  00 C0     
       02:7436  00 00     
       02:7438  00 00     
       02:743A  00 00     
       02:743C  00 00     
       02:743E  00 00     
  879  02:7440  00 03             dw $0300,$0180,$0180,$0380,$0380,$0700,$1e00,$fc00
       02:7442  80 01     
       02:7444  80 01     
       02:7446  80 03     
       02:7448  80 03     
       02:744A  00 07     
       02:744C  00 1E     
       02:744E  00 FC     
  880  02:7450  00 F8             dw $f800,$f000,$c000,$0000,$0000,$0000,$0000,$0000
       02:7452  00 F0     
       02:7454  00 C0     
       02:7456  00 00     
       02:7458  00 00     
       02:745A  00 00     
       02:745C  00 00     
       02:745E  00 00     
  881  02:7460  00 80             dw $8000,$0000,$0000,$0000,$0000,$0000,$0000,$0000
       02:7462  00 00     
       02:7464  00 00     
       02:7466  00 00     
       02:7468  00 00     
       02:746A  00 00     
       02:746C  00 00     
       02:746E  00 00     
  882  02:7470  00 08             dw $0800,$f000,$c000,$0000,$0000,$0000,$0000,$0000
       02:7472  00 F0     
       02:7474  00 C0     
       02:7476  00 00     
       02:7478  00 00     
       02:747A  00 00     
       02:747C  00 00     
       02:747E  00 00     
  883                     
  884  02:7480            spr_pattern_turret04:
  885  02:7480  13 00             dw $0013,$0013,$0013,$0013,$001a,$001a,$0038,$0038
       02:7482  13 00     
       02:7484  13 00     
       02:7486  13 00     
       02:7488  1A 00     
       02:748A  1A 00     
       02:748C  38 00     
       02:748E  38 00     
  886  02:7490  3C 00             dw $003c,$0025,$0067,$004f,$00cc,$0080,$0180,$03a0
       02:7492  25 00     
       02:7494  67 00     
       02:7496  4F 00     
       02:7498  CC 00     
       02:749A  80 00     
       02:749C  80 01     
       02:749E  A0 03     
  887  02:74A0  10 00             dw $0010,$0010,$0010,$0010,$0019,$0019,$003a,$003a
       02:74A2  10 00     
       02:74A4  10 00     
       02:74A6  10 00     
       02:74A8  19 00     
       02:74AA  19 00     
       02:74AC  3A 00     
       02:74AE  3A 00     
  888  02:74B0  3E 00             dw $003e,$003a,$007f,$0070,$00f3,$00f0,$01f6,$03d0
       02:74B2  3A 00     
       02:74B4  7F 00     
       02:74B6  70 00     
       02:74B8  F3 00     
       02:74BA  F0 00     
       02:74BC  F6 01     
       02:74BE  D0 03     
  889  02:74C0  12 00             dw $0012,$0012,$0012,$0012,$001a,$001a,$0038,$0038
       02:74C2  12 00     
       02:74C4  12 00     
       02:74C6  12 00     
       02:74C8  1A 00     
       02:74CA  1A 00     
       02:74CC  38 00     
       02:74CE  38 00     
  890  02:74D0  3C 00             dw $003c,$003c,$0078,$007f,$00f0,$00f0,$01d6,$03d0
       02:74D2  3C 00     
       02:74D4  78 00     
       02:74D6  7F 00     
       02:74D8  F0 00     
       02:74DA  F0 00     
       02:74DC  D6 01     
       02:74DE  D0 03     
  891  02:74E0  10 00             dw $0010,$0010,$0010,$0010,$0018,$0018,$003b,$003b
       02:74E2  10 00     
       02:74E4  10 00     
       02:74E6  10 00     
       02:74E8  18 00     
       02:74EA  18 00     
       02:74EC  3B 00     
       02:74EE  3B 00     
  892  02:74F0  3B 00             dw $003b,$0023,$0040,$0000,$0080,$000f,$012f,$032f
       02:74F2  23 00     
       02:74F4  40 00     
       02:74F6  00 00     
       02:74F8  80 00     
       02:74FA  0F 00     
       02:74FC  2F 01     
       02:74FE  2F 03     
  893  02:7500  00 00             dw $0000,$0000,$0000,$0000,$0000,$0000,$0000,$0000
       02:7502  00 00     
       02:7504  00 00     
       02:7506  00 00     
       02:7508  00 00     
       02:750A  00 00     
       02:750C  00 00     
       02:750E  00 00     
  894  02:7510  00 40             dw $4000,$7000,$e800,$2400,$6400,$2200,$2200,$0200
       02:7512  00 70     
       02:7514  00 E8     
       02:7516  00 24     
       02:7518  00 64     
       02:751A  00 22     
       02:751C  00 22     
       02:751E  00 02     
  895  02:7520  00 00             dw $0000,$0000,$0000,$0000,$0000,$0000,$8000,$8000
       02:7522  00 00     
       02:7524  00 00     
       02:7526  00 00     
       02:7528  00 00     
       02:752A  00 00     
       02:752C  00 80     
       02:752E  00 80     
  896  02:7530  00 C0             dw $c000,$8000,$c000,$c000,$8000,$c000,$c000,$e000
       02:7532  00 80     
       02:7534  00 C0     
       02:7536  00 C0     
       02:7538  00 80     
       02:753A  00 C0     
       02:753C  00 C0     
       02:753E  00 E0     
  897  02:7540  00 80             dw $8000,$8000,$8000,$8000,$8000,$8000,$0000,$0000
       02:7542  00 80     
       02:7544  00 80     
       02:7546  00 80     
       02:7548  00 80     
       02:754A  00 80     
       02:754C  00 00     
       02:754E  00 00     
  898  02:7550  00 40             dw $4000,$7000,$3800,$fc00,$1c00,$1e00,$1e00,$1e00
       02:7552  00 70     
       02:7554  00 38     
       02:7556  00 FC     
       02:7558  00 1C     
       02:755A  00 1E     
       02:755C  00 1E     
       02:755E  00 1E     
  899  02:7560  00 00             dw $0000,$0000,$0000,$0000,$0000,$0000,$8000,$8000
       02:7562  00 00     
       02:7564  00 00     
       02:7566  00 00     
       02:7568  00 00     
       02:756A  00 00     
       02:756C  00 80     
       02:756E  00 80     
  900  02:7570  00 80             dw $8000,$8000,$0000,$0000,$0000,$0000,$0000,$0000
       02:7572  00 80     
       02:7574  00 00     
       02:7576  00 00     
       02:7578  00 00     
       02:757A  00 00     
       02:757C  00 00     
       02:757E  00 00     
  901  02:7580  A0 03             dw $03a0,$03a0,$03a0,$03a1,$0389,$0380,$03c0,$03c0
       02:7582  A0 03     
       02:7584  A0 03     
       02:7586  A1 03     
       02:7588  89 03     
       02:758A  80 03     
       02:758C  C0 03     
       02:758E  C0 03     
  902  02:7590  F8 01             dw $01f8,$01ff,$00ff,$001f,$0000,$0000,$0000,$0000
       02:7592  FF 01     
       02:7594  FF 00     
       02:7596  1F 00     
       02:7598  00 00     
       02:759A  00 00     
       02:759C  00 00     
       02:759E  00 00     
  903  02:75A0  DF 03             dw $03df,$03d0,$03df,$03df,$03f7,$03ff,$03ff,$03ff
       02:75A2  D0 03     
       02:75A4  DF 03     
       02:75A6  DF 03     
       02:75A8  F7 03     
       02:75AA  FF 03     
       02:75AC  FF 03     
       02:75AE  FF 03     
  904  02:75B0  FF 01             dw $01ff,$01ff,$00ff,$001f,$0000,$0000,$0000,$0000
       02:75B2  FF 01     
       02:75B4  FF 00     
       02:75B6  1F 00     
       02:75B8  00 00     
       02:75BA  00 00     
       02:75BC  00 00     
       02:75BE  00 00     
  905  02:75C0  D0 03             dw $03d0,$03d0,$03d0,$03d0,$03d0,$03f0,$03f0,$03fc
       02:75C2  D0 03     
       02:75C4  D0 03     
       02:75C6  D0 03     
       02:75C8  D0 03     
       02:75CA  F0 03     
       02:75CC  F0 03     
       02:75CE  FC 03     
  906  02:75D0  FF 01             dw $01ff,$01ff,$00ff,$001f,$0000,$0000,$0000,$0000
       02:75D2  FF 01     
       02:75D4  FF 00     
       02:75D6  1F 00     
       02:75D8  00 00     
       02:75DA  00 00     
       02:75DC  00 00     
       02:75DE  00 00     
  907  02:75E0  20 03             dw $0320,$032f,$0320,$0320,$0320,$0300,$0380,$0380
       02:75E2  2F 03     
       02:75E4  20 03     
       02:75E6  20 03     
       02:75E8  20 03     
       02:75EA  00 03     
       02:75EC  80 03     
       02:75EE  80 03     
  908  02:75F0  C0 01             dw $01c0,$01f8,$00ff,$001f,$0000,$0000,$0000,$0000
       02:75F2  F8 01     
       02:75F4  FF 00     
       02:75F6  1F 00     
       02:75F8  00 00     
       02:75FA  00 00     
       02:75FC  00 00     
       02:75FE  00 00     
  909  02:7600  00 02             dw $0200,$6200,$f200,$fa00,$fa00,$fa00,$7800,$7800
       02:7602  00 62     
       02:7604  00 F2     
       02:7606  00 FA     
       02:7608  00 FA     
       02:760A  00 FA     
       02:760C  00 78     
       02:760E  00 78     
  910  02:7610  00 40             dw $4000,$f000,$e000,$0000,$0000,$0000,$0000,$0000
       02:7612  00 F0     
       02:7614  00 E0     
       02:7616  00 00     
       02:7618  00 00     
       02:761A  00 00     
       02:761C  00 00     
       02:761E  00 00     
  911  02:7620  00 E0             dw $e000,$e000,$9000,$2800,$4800,$9000,$e400,$8400
       02:7622  00 E0     
       02:7624  00 90     
       02:7626  00 28     
       02:7628  00 48     
       02:762A  00 90     
       02:762C  00 E4     
       02:762E  00 84     
  912  02:7630  00 B8             dw $b800,$f000,$e000,$0000,$0000,$0000,$0000,$0000
       02:7632  00 F0     
       02:7634  00 E0     
       02:7636  00 00     
       02:7638  00 00     
       02:763A  00 00     
       02:763C  00 00     
       02:763E  00 00     
  913  02:7640  00 1E             dw $1e00,$1e00,$0e00,$0600,$0600,$0e00,$1c00,$7c00
       02:7642  00 1E     
       02:7644  00 0E     
       02:7646  00 06     
       02:7648  00 06     
       02:764A  00 0E     
       02:764C  00 1C     
       02:764E  00 7C     
  914  02:7650  00 F8             dw $f800,$f000,$e000,$0000,$0000,$0000,$0000,$0000
       02:7652  00 F0     
       02:7654  00 E0     
       02:7656  00 00     
       02:7658  00 00     
       02:765A  00 00     
       02:765C  00 00     
       02:765E  00 00     
  915  02:7660  00 00             dw $0000,$0000,$0000,$0000,$0000,$0000,$0000,$0000
       02:7662  00 00     
       02:7664  00 00     
       02:7666  00 00     
       02:7668  00 00     
       02:766A  00 00     
       02:766C  00 00     
       02:766E  00 00     
  916  02:7670  00 00             dw $0000,$3000,$e000,$0000,$0000,$0000,$0000,$0000
       02:7672  00 30     
       02:7674  00 E0     
       02:7676  00 00     
       02:7678  00 00     
       02:767A  00 00     
       02:767C  00 00     
       02:767E  00 00     
  917                     
  918  02:7680            spr_pattern_exp00:
  919  02:7680  00 00             dw $0000,$0000,$0000,$0000,$0000,$0000,$0000,$0000
       02:7682  00 00     
       02:7684  00 00     
       02:7686  00 00     
       02:7688  00 00     
       02:768A  00 00     
       02:768C  00 00     
       02:768E  00 00     
  920  02:7690  05 00             dw $0005,$0014,$0013,$006e,$009c,$00d0,$0130,$01a0
       02:7692  14 00     
       02:7694  13 00     
       02:7696  6E 00     
       02:7698  9C 00     
       02:769A  D0 00     
       02:769C  30 01     
       02:769E  A0 01     
  921  02:76A0  00 00             dw $0000,$0000,$0000,$0000,$0000,$0000,$0000,$0000
       02:76A2  00 00     
       02:76A4  00 00     
       02:76A6  00 00     
       02:76A8  00 00     
       02:76AA  00 00     
       02:76AC  00 00     
       02:76AE  00 00     
  922  02:76B0  01 00             dw $0001,$0007,$001c,$0030,$00a8,$0061,$0140,$01c0
       02:76B2  07 00     
       02:76B4  1C 00     
       02:76B6  30 00     
       02:76B8  A8 00     
       02:76BA  61 00     
       02:76BC  40 01     
       02:76BE  C0 01     
  923  02:76C0  00 00             dw $0000,$0000,$0000,$0000,$0000,$0000,$0000,$0000
       02:76C2  00 00     
       02:76C4  00 00     
       02:76C6  00 00     
       02:76C8  00 00     
       02:76CA  00 00     
       02:76CC  00 00     
       02:76CE  00 00     
  924  02:76D0  01 00             dw $0001,$0007,$001f,$003f,$00b7,$007e,$017f,$01ff
       02:76D2  07 00     
       02:76D4  1F 00     
       02:76D6  3F 00     
       02:76D8  B7 00     
       02:76DA  7E 00     
       02:76DC  7F 01     
       02:76DE  FF 01     
  925  02:76E0  00 00             dw $0000,$0000,$0000,$0000,$0000,$0000,$0000,$0000
       02:76E2  00 00     
       02:76E4  00 00     
       02:76E6  00 00     
       02:76E8  00 00     
       02:76EA  00 00     
       02:76EC  00 00     
       02:76EE  00 00     
  926  02:76F0  06 00             dw $0006,$0018,$0020,$0040,$00c0,$0080,$0180,$0100
       02:76F2  18 00     
       02:76F4  20 00     
       02:76F6  40 00     
       02:76F8  C0 00     
       02:76FA  80 00     
       02:76FC  80 01     
       02:76FE  00 01     
  927  02:7700  00 00             dw $0000,$0000,$0000,$0000,$0000,$0000,$0000,$0000
       02:7702  00 00     
       02:7704  00 00     
       02:7706  00 00     
       02:7708  00 00     
       02:770A  00 00     
       02:770C  00 00     
       02:770E  00 00     
  928  02:7710  00 A0             dw $a000,$2800,$c800,$7600,$1800,$0b00,$4c00,$0500
       02:7712  00 28     
       02:7714  00 C8     
       02:7716  00 76     
       02:7718  00 18     
       02:771A  00 0B     
       02:771C  00 4C     
       02:771E  00 05     
  929  02:7720  00 00             dw $0000,$0000,$0000,$0000,$0000,$0000,$0000,$0000
       02:7722  00 00     
       02:7724  00 00     
       02:7726  00 00     
       02:7728  00 00     
       02:772A  00 00     
       02:772C  00 00     
       02:772E  00 00     
  930  02:7730  00 80             dw $8000,$e000,$3800,$0c00,$0400,$0600,$4200,$8300
       02:7732  00 E0     
       02:7734  00 38     
       02:7736  00 0C     
       02:7738  00 04     
       02:773A  00 06     
       02:773C  00 42     
       02:773E  00 83     
  931  02:7740  00 00             dw $0000,$0000,$0000,$0000,$0000,$0000,$0000,$0000
       02:7742  00 00     
       02:7744  00 00     
       02:7746  00 00     
       02:7748  00 00     
       02:774A  00 00     
       02:774C  00 00     
       02:774E  00 00     
  932  02:7750  00 80             dw $8000,$e000,$f800,$fc00,$fc00,$fe00,$be00,$7f00
       02:7752  00 E0     
       02:7754  00 F8     
       02:7756  00 FC     
       02:7758  00 FC     
       02:775A  00 FE     
       02:775C  00 BE     
       02:775E  00 7F     
  933  02:7760  00 00             dw $0000,$0000,$0000,$0000,$0000,$0000,$0000,$0000
       02:7762  00 00     
       02:7764  00 00     
       02:7766  00 00     
       02:7768  00 00     
       02:776A  00 00     
       02:776C  00 00     
       02:776E  00 00     
  934  02:7770  00 60             dw $6000,$1800,$0400,$0200,$0200,$0100,$0100,$0000
       02:7772  00 18     
       02:7774  00 04     
       02:7776  00 02     
       02:7778  00 02     
       02:777A  00 01     
       02:777C  00 01     
       02:777E  00 00     
  935  02:7780  84 01             dw $0184,$0130,$01d2,$0198,$00ee,$00d3,$0074,$003d
       02:7782  30 01     
       02:7784  D2 01     
       02:7786  98 01     
       02:7788  EE 00     
       02:778A  D3 00     
       02:778C  74 00     
       02:778E  3D 00     
  936  02:7790  07 00             dw $0007,$0000,$0000,$0000,$0000,$0000,$0000,$0000
       02:7792  00 00     
       02:7794  00 00     
       02:7796  00 00     
       02:7798  00 00     
       02:779A  00 00     
       02:779C  00 00     
       02:779E  00 00     
  937  02:77A0  C0 01             dw $01c0,$0140,$0162,$01a0,$00b0,$00dc,$0067,$0039
       02:77A2  40 01     
       02:77A4  62 01     
       02:77A6  A0 01     
       02:77A8  B0 00     
       02:77AA  DC 00     
       02:77AC  67 00     
       02:77AE  39 00     
  938  02:77B0  07 00             dw $0007,$0000,$0000,$0000,$0000,$0000,$0000,$0000
       02:77B2  00 00     
       02:77B4  00 00     
       02:77B6  00 00     
       02:77B8  00 00     
       02:77BA  00 00     
       02:77BC  00 00     
       02:77BE  00 00     
  939  02:77C0  FB 01             dw $01fb,$017f,$017d,$01bf,$00bf,$00df,$0067,$0039
       02:77C2  7F 01     
       02:77C4  7D 01     
       02:77C6  BF 01     
       02:77C8  BF 00     
       02:77CA  DF 00     
       02:77CC  67 00     
       02:77CE  39 00     
  940  02:77D0  07 00             dw $0007,$0000,$0000,$0000,$0000,$0000,$0000,$0000
       02:77D2  00 00     
       02:77D4  00 00     
       02:77D6  00 00     
       02:77D8  00 00     
       02:77DA  00 00     
       02:77DC  00 00     
       02:77DE  00 00     
  941  02:77E0  00 01             dw $0100,$0180,$0180,$01c0,$00c0,$00e0,$0078,$003e
       02:77E2  80 01     
       02:77E4  80 01     
       02:77E6  C0 01     
       02:77E8  C0 00     
       02:77EA  E0 00     
       02:77EC  78 00     
       02:77EE  3E 00     
  942  02:77F0  07 00             dw $0007,$0000,$0000,$0000,$0000,$0000,$0000,$0000
       02:77F2  00 00     
       02:77F4  00 00     
       02:77F6  00 00     
       02:77F8  00 00     
       02:77FA  00 00     
       02:77FC  00 00     
       02:77FE  00 00     
  943  02:7800  00 15             dw $1500,$2c00,$0b00,$1800,$7600,$c800,$2800,$b000
       02:7802  00 2C     
       02:7804  00 0B     
       02:7806  00 18     
       02:7808  00 76     
       02:780A  00 C8     
       02:780C  00 28     
       02:780E  00 B0     
  944  02:7810  00 E0             dw $e000,$0000,$0000,$0000,$0000,$0000,$0000,$0000
       02:7812  00 00     
       02:7814  00 00     
       02:7816  00 00     
       02:7818  00 00     
       02:781A  00 00     
       02:781C  00 00     
       02:781E  00 00     
  945  02:7820  00 13             dw $1300,$0200,$0600,$8400,$0c00,$3800,$e000,$9000
       02:7822  00 02     
       02:7824  00 06     
       02:7826  00 84     
       02:7828  00 0C     
       02:782A  00 38     
       02:782C  00 E0     
       02:782E  00 90     
  946  02:7830  00 E0             dw $e000,$0000,$0000,$0000,$0000,$0000,$0000,$0000
       02:7832  00 00     
       02:7834  00 00     
       02:7836  00 00     
       02:7838  00 00     
       02:783A  00 00     
       02:783C  00 00     
       02:783E  00 00     
  947  02:7840  00 EF             dw $ef00,$de00,$fe00,$7c00,$fc00,$f800,$e000,$9000
       02:7842  00 DE     
       02:7844  00 FE     
       02:7846  00 7C     
       02:7848  00 FC     
       02:784A  00 F8     
       02:784C  00 E0     
       02:784E  00 90     
  948  02:7850  00 E0             dw $e000,$0000,$0000,$0000,$0000,$0000,$0000,$0000
       02:7852  00 00     
       02:7854  00 00     
       02:7856  00 00     
       02:7858  00 00     
       02:785A  00 00     
       02:785C  00 00     
       02:785E  00 00     
  949  02:7860  00 00             dw $0000,$0100,$0100,$0200,$0200,$0400,$1800,$7000
       02:7862  00 01     
       02:7864  00 01     
       02:7866  00 02     
       02:7868  00 02     
       02:786A  00 04     
       02:786C  00 18     
       02:786E  00 70     
  950  02:7870  00 E0             dw $e000,$0000,$0000,$0000,$0000,$0000,$0000,$0000
       02:7872  00 00     
       02:7874  00 00     
       02:7876  00 00     
       02:7878  00 00     
       02:787A  00 00     
       02:787C  00 00     
       02:787E  00 00     
  951                     
  952  02:7880            spr_pattern_exp01:
  953  02:7880  00 00             dw $0000,$0000,$0000,$0000,$0000,$0002,$0004,$0013
       02:7882  00 00     
       02:7884  00 00     
       02:7886  00 00     
       02:7888  00 00     
       02:788A  02 00     
       02:788C  04 00     
       02:788E  13 00     
  954  02:7890  1C 02             dw $021c,$0023,$082c,$079a,$06b5,$06b3,$0d04,$0df5
       02:7892  23 00     
       02:7894  2C 08     
       02:7896  9A 07     
       02:7898  B5 06     
       02:789A  B3 06     
       02:789C  04 0D     
       02:789E  F5 0D     
  955  02:78A0  00 00             dw $0000,$0000,$0000,$0000,$0000,$0002,$0007,$001c
       02:78A2  00 00     
       02:78A4  00 00     
       02:78A6  00 00     
       02:78A8  00 00     
       02:78AA  02 00     
       02:78AC  07 00     
       02:78AE  1C 00     
  956  02:78B0  20 02             dw $0220,$01c3,$098c,$071a,$0721,$0733,$0e07,$0e76
       02:78B2  C3 01     
       02:78B4  8C 09     
       02:78B6  1A 07     
       02:78B8  21 07     
       02:78BA  33 07     
       02:78BC  07 0E     
       02:78BE  76 0E     
  957  02:78C0  00 00             dw $0000,$0000,$0000,$0000,$0000,$0002,$0007,$001f
       02:78C2  00 00     
       02:78C4  00 00     
       02:78C6  00 00     
       02:78C8  00 00     
       02:78CA  02 00     
       02:78CC  07 00     
       02:78CE  1F 00     
  958  02:78D0  3F 02             dw $023f,$01fc,$09f3,$07e5,$07ce,$07cc,$0ff8,$0f88
       02:78D2  FC 01     
       02:78D4  F3 09     
       02:78D6  E5 07     
       02:78D8  CE 07     
       02:78DA  CC 07     
       02:78DC  F8 0F     
       02:78DE  88 0F     
  959  02:78E0  00 00             dw $0000,$0000,$0000,$0000,$0000,$0002,$0000,$0000
       02:78E2  00 00     
       02:78E4  00 00     
       02:78E6  00 00     
       02:78E8  00 00     
       02:78EA  02 00     
       02:78EC  00 00     
       02:78EE  00 00     
  960  02:78F0  40 00             dw $0040,$0000,$0800,$0600,$0600,$0400,$0c00,$0c00
       02:78F2  00 00     
       02:78F4  00 08     
       02:78F6  00 06     
       02:78F8  00 06     
       02:78FA  00 04     
       02:78FC  00 0C     
       02:78FE  00 0C     
  961  02:7900  00 00             dw $0000,$0000,$0000,$0000,$8000,$0000,$2000,$c880
       02:7902  00 00     
       02:7904  00 00     
       02:7906  00 00     
       02:7908  00 80     
       02:790A  00 00     
       02:790C  00 20     
       02:790E  80 C8     
  962  02:7910  00 B9             dw $b900,$ce00,$a600,$9980,$6500,$a540,$4e80,$aa00
       02:7912  00 CE     
       02:7914  00 A6     
       02:7916  80 99     
       02:7918  00 65     
       02:791A  40 A5     
       02:791C  80 4E     
       02:791E  00 AA     
  963  02:7920  00 00             dw $0000,$0000,$0000,$0000,$8000,$8000,$e000,$3880
       02:7922  00 00     
       02:7924  00 00     
       02:7926  00 00     
       02:7928  00 80     
       02:792A  00 80     
       02:792C  00 E0     
       02:792E  80 38     
  964  02:7930  00 04             dw $0400,$c200,$a500,$8880,$0480,$8cc0,$ce40,$6ac0
       02:7932  00 C2     
       02:7934  00 A5     
       02:7936  80 88     
       02:7938  80 04     
       02:793A  C0 8C     
       02:793C  40 CE     
       02:793E  C0 6A     
  965  02:7940  00 00             dw $0000,$0000,$0000,$0000,$8000,$8000,$e000,$f880
       02:7942  00 00     
       02:7944  00 00     
       02:7946  00 00     
       02:7948  00 80     
       02:794A  00 80     
       02:794C  00 E0     
       02:794E  80 F8     
  966  02:7950  00 FD             dw $fd00,$3c00,$5b00,$7780,$fb80,$73c0,$31c0,$15c0
       02:7952  00 3C     
       02:7954  00 5B     
       02:7956  80 77     
       02:7958  80 FB     
       02:795A  C0 73     
       02:795C  C0 31     
       02:795E  C0 15     
  967  02:7960  00 00             dw $0000,$0000,$0000,$0000,$0000,$0000,$0000,$0000
       02:7962  00 00     
       02:7964  00 00     
       02:7966  00 00     
       02:7968  00 00     
       02:796A  00 00     
       02:796C  00 00     
       02:796E  00 00     
  968  02:7970  00 02             dw $0200,$0100,$0000,$0000,$0000,$0000,$0000,$0000
       02:7972  00 01     
       02:7974  00 00     
       02:7976  00 00     
       02:7978  00 00     
       02:797A  00 00     
       02:797C  00 00     
       02:797E  00 00     
  969  02:7980  44 0D             dw $0d44,$0d7b,$0eac,$0e83,$079d,$074c,$0223,$039c
       02:7982  7B 0D     
       02:7984  AC 0E     
       02:7986  83 0E     
       02:7988  9D 07     
       02:798A  4C 07     
       02:798C  23 02     
       02:798E  9C 03     
  970  02:7990  F3 01             dw $01f3,$00fc,$003f,$000f,$0000,$0000,$0000,$0000
       02:7992  FC 00     
       02:7994  3F 00     
       02:7996  0F 00     
       02:7998  00 00     
       02:799A  00 00     
       02:799C  00 00     
       02:799E  00 00     
  971  02:79A0  57 0E             dw $0e57,$0e73,$0f20,$0f03,$071e,$078f,$0343,$03a0
       02:79A2  73 0E     
       02:79A4  20 0F     
       02:79A6  03 0F     
       02:79A8  1E 07     
       02:79AA  8F 07     
       02:79AC  43 03     
       02:79AE  A0 03     
  972  02:79B0  FC 01             dw $01fc,$00ff,$003f,$000f,$0000,$0000,$0000,$0000
       02:79B2  FF 00     
       02:79B4  3F 00     
       02:79B6  0F 00     
       02:79B8  00 00     
       02:79BA  00 00     
       02:79BC  00 00     
       02:79BE  00 00     
  973  02:79C0  A8 0F             dw $0fa8,$0f8c,$0fdf,$0ffc,$07e0,$07f0,$037c,$03bf
       02:79C2  8C 0F     
       02:79C4  DF 0F     
       02:79C6  FC 0F     
       02:79C8  E0 07     
       02:79CA  F0 07     
       02:79CC  7C 03     
       02:79CE  BF 03     
  974  02:79D0  FF 01             dw $01ff,$00ff,$003f,$000f,$0000,$0000,$0000,$0000
       02:79D2  FF 00     
       02:79D4  3F 00     
       02:79D6  0F 00     
       02:79D8  00 00     
       02:79DA  00 00     
       02:79DC  00 00     
       02:79DE  00 00     
  975  02:79E0  00 0C             dw $0c00,$0c00,$0c00,$0e00,$0600,$0700,$0280,$03c0
       02:79E2  00 0C     
       02:79E4  00 0C     
       02:79E6  00 0E     
       02:79E8  00 06     
       02:79EA  00 07     
       02:79EC  80 02     
       02:79EE  C0 03     
  976  02:79F0  E0 01             dw $01e0,$00f8,$003f,$000f,$0000,$0000,$0000,$0000
       02:79F2  F8 00     
       02:79F4  3F 00     
       02:79F6  0F 00     
       02:79F8  00 00     
       02:79FA  00 00     
       02:79FC  00 00     
       02:79FE  00 00     
  977  02:7A00  80 46             dw $4680,$aa80,$3540,$ad00,$5d80,$ae00,$c600,$bc80
       02:7A02  80 AA     
       02:7A04  40 35     
       02:7A06  00 AD     
       02:7A08  80 5D     
       02:7A0A  00 AE     
       02:7A0C  00 C6     
       02:7A0E  80 BC     
  978  02:7A10  C0 C8             dw $c8c0,$3800,$ec20,$0200,$7e00,$0000,$0000,$0000
       02:7A12  00 38     
       02:7A14  20 EC     
       02:7A16  00 02     
       02:7A18  00 7E     
       02:7A1A  00 00     
       02:7A1C  00 00     
       02:7A1E  00 00     
  979  02:7A20  40 C6             dw $c640,$ba40,$2cc0,$b480,$dc80,$af00,$c600,$0080
       02:7A22  40 BA     
       02:7A24  C0 2C     
       02:7A26  80 B4     
       02:7A28  80 DC     
       02:7A2A  00 AF     
       02:7A2C  00 C6     
       02:7A2E  80 00     
  980  02:7A30  40 39             dw $3940,$f8c0,$ec20,$0200,$7e00,$0000,$0000,$0000
       02:7A32  C0 F8     
       02:7A34  20 EC     
       02:7A36  00 02     
       02:7A38  00 7E     
       02:7A3A  00 00     
       02:7A3C  00 00     
       02:7A3E  00 00     
  981  02:7A40  C0 39             dw $39c0,$45c0,$c3c0,$4380,$2380,$5100,$3900,$ff80
       02:7A42  C0 45     
       02:7A44  C0 C3     
       02:7A46  80 43     
       02:7A48  80 23     
       02:7A4A  00 51     
       02:7A4C  00 39     
       02:7A4E  80 FF     
  982  02:7A50  C0 F9             dw $f9c0,$f8c0,$ec20,$0200,$7e00,$0000,$0000,$0000
       02:7A52  C0 F8     
       02:7A54  20 EC     
       02:7A56  00 02     
       02:7A58  00 7E     
       02:7A5A  00 00     
       02:7A5C  00 00     
       02:7A5E  00 00     
  983  02:7A60  00 00             dw $0000,$0000,$0000,$0000,$0000,$0000,$0000,$0000
       02:7A62  00 00     
       02:7A64  00 00     
       02:7A66  00 00     
       02:7A68  00 00     
       02:7A6A  00 00     
       02:7A6C  00 00     
       02:7A6E  00 00     
  984  02:7A70  00 00             dw $0000,$1800,$ec00,$0200,$7e00,$0000,$0000,$0000
       02:7A72  00 18     
       02:7A74  00 EC     
       02:7A76  00 02     
       02:7A78  00 7E     
       02:7A7A  00 00     
       02:7A7C  00 00     
       02:7A7E  00 00     
  985                     
  986  02:7A80            spr_pattern_exp02:
  987  02:7A80  00 00             dw $0000,$0000,$0000,$0000,$0005,$000c,$08a3,$005c
       02:7A82  00 00     
       02:7A84  00 00     
       02:7A86  00 00     
       02:7A88  05 00     
       02:7A8A  0C 00     
       02:7A8C  A3 08     
       02:7A8E  5C 00     
  988  02:7A90  A3 00             dw $00a3,$014f,$268e,$4901,$3d77,$157b,$1aff,$3b78
       02:7A92  4F 01     
       02:7A94  8E 26     
       02:7A96  01 49     
       02:7A98  77 3D     
       02:7A9A  7B 15     
       02:7A9C  FF 1A     
       02:7A9E  78 3B     
  989  02:7AA0  00 00             dw $0000,$0000,$0000,$0000,$0006,$0010,$08c3,$049f
       02:7AA2  00 00     
       02:7AA4  00 00     
       02:7AA6  00 00     
       02:7AA8  06 00     
       02:7AAA  10 00     
       02:7AAC  C3 08     
       02:7AAE  9F 04     
  990  02:7AB0  3C 01             dw $013c,$0370,$04f1,$4dff,$398f,$1987,$1307,$338f
       02:7AB2  70 03     
       02:7AB4  F1 04     
       02:7AB6  FF 4D     
       02:7AB8  8F 39     
       02:7ABA  87 19     
       02:7ABC  07 13     
       02:7ABE  8F 33     
  991  02:7AC0  00 00             dw $0000,$0000,$0000,$0000,$0007,$001f,$08fc,$04e0
       02:7AC2  00 00     
       02:7AC4  00 00     
       02:7AC6  00 00     
       02:7AC8  07 00     
       02:7ACA  1F 00     
       02:7ACC  FC 08     
       02:7ACE  E0 04     
  992  02:7AD0  C0 03             dw $03c0,$0280,$0700,$4e00,$3e00,$1e00,$1c00,$3c00
       02:7AD2  80 02     
       02:7AD4  00 07     
       02:7AD6  00 4E     
       02:7AD8  00 3E     
       02:7ADA  00 1E     
       02:7ADC  00 1C     
       02:7ADE  00 3C     
  993  02:7AE0  00 00             dw $0000,$0000,$0000,$0000,$0010,$0100,$0000,$0000
       02:7AE2  00 00     
       02:7AE4  00 00     
       02:7AE6  00 00     
       02:7AE8  10 00     
       02:7AEA  00 01     
       02:7AEC  00 00     
       02:7AEE  00 00     
  994  02:7AF0  00 00             dw $0000,$0000,$3400,$4000,$3000,$1000,$1000,$2000
       02:7AF2  00 00     
       02:7AF4  00 34     
       02:7AF6  00 40     
       02:7AF8  00 30     
       02:7AFA  00 10     
       02:7AFC  00 10     
       02:7AFE  00 20     
  995  02:7B00  00 00             dw $0000,$0000,$0000,$0000,$a000,$3260,$c4a0,$f840
       02:7B02  00 00     
       02:7B04  00 00     
       02:7B06  00 00     
       02:7B08  00 A0     
       02:7B0A  60 32     
       02:7B0C  A0 C4     
       02:7B0E  40 F8     
  996  02:7B10  00 B7             dw $b700,$2300,$9968,$5b80,$bcb0,$3ea0,$ce50,$8572
       02:7B12  00 23     
       02:7B14  68 99     
       02:7B16  80 5B     
       02:7B18  B0 BC     
       02:7B1A  A0 3E     
       02:7B1C  50 CE     
       02:7B1E  72 85     
  997  02:7B20  00 00             dw $0000,$0000,$8000,$0000,$e010,$0a40,$c2a0,$f840
       02:7B22  00 00     
       02:7B24  00 80     
       02:7B26  00 00     
       02:7B28  10 E0     
       02:7B2A  40 0A     
       02:7B2C  A0 C2     
       02:7B2E  40 F8     
  998  02:7B30  00 BE             dw $be00,$bf40,$a708,$e7b0,$c790,$c990,$f1c8,$7bf0
       02:7B32  40 BF     
       02:7B34  08 A7     
       02:7B36  B0 E7     
       02:7B38  90 C7     
       02:7B3A  90 C9     
       02:7B3C  C8 F1     
       02:7B3E  F0 7B     
  999  02:7B40  00 00             dw $0000,$0000,$8000,$8000,$6010,$fa60,$3ee0,$07c0
       02:7B42  00 00     
       02:7B44  00 80     
       02:7B46  00 80     
       02:7B48  10 60     
       02:7B4A  60 FA     
       02:7B4C  E0 3E     
       02:7B4E  C0 07     
 1000  02:7B50  80 40             dw $4080,$40c0,$40e8,$0070,$0070,$0070,$0038,$000e
       02:7B52  C0 40     
       02:7B54  E8 40     
       02:7B56  70 00     
       02:7B58  70 00     
       02:7B5A  70 00     
       02:7B5C  38 00     
       02:7B5E  0E 00     
 1001  02:7B60  00 00             dw $0000,$0000,$0000,$0000,$0100,$0000,$0000,$0000
       02:7B62  00 00     
       02:7B64  00 00     
       02:7B66  00 00     
       02:7B68  00 01     
       02:7B6A  00 00     
       02:7B6C  00 00     
       02:7B6E  00 00     
 1002  02:7B70  00 00             dw $0000,$0000,$0000,$0000,$0000,$0000,$0000,$0000
       02:7B72  00 00     
       02:7B74  00 00     
       02:7B76  00 00     
       02:7B78  00 00     
       02:7B7A  00 00     
       02:7B7C  00 00     
       02:7B7E  00 00     
 1003  02:7B80  6B 6F             dw $6f6b,$7b2c,$f51f,$7cf1,$3273,$3cb7,$3c63,$4e2c
       02:7B82  2C 7B     
       02:7B84  1F F5     
       02:7B86  F1 7C     
       02:7B88  73 32     
       02:7B8A  B7 3C     
       02:7B8C  63 3C     
       02:7B8E  2C 4E     
 1004  02:7B90  7F 06             dw $067f,$0e23,$0bec,$0ffb,$187e,$0024,$0004,$0000
       02:7B92  23 0E     
       02:7B94  EC 0B     
       02:7B96  FB 0F     
       02:7B98  7E 18     
       02:7B9A  24 00     
       02:7B9C  04 00     
       02:7B9E  00 00     
 1005  02:7BA0  9C 7F             dw $7f9c,$73df,$f9ff,$78fe,$347c,$2e38,$3e7c,$4f3f
       02:7BA2  DF 73     
       02:7BA4  FF F9     
       02:7BA6  FE 78     
       02:7BA8  7C 34     
       02:7BAA  38 2E     
       02:7BAC  7C 3E     
       02:7BAE  3F 4F     
 1006  02:7BB0  BF 06             dw $06bf,$0dc3,$0ff0,$0ffc,$187e,$0024,$0004,$0000
       02:7BB2  C3 0D     
       02:7BB4  F0 0F     
       02:7BB6  FC 0F     
       02:7BB8  7E 18     
       02:7BBA  24 00     
       02:7BBC  04 00     
       02:7BBE  00 00     
 1007  02:7BC0  00 70             dw $7000,$7c00,$fe00,$7f00,$3780,$2fc0,$3f80,$4fc0
       02:7BC2  00 7C     
       02:7BC4  00 FE     
       02:7BC6  00 7F     
       02:7BC8  80 37     
       02:7BCA  C0 2F     
       02:7BCC  80 3F     
       02:7BCE  C0 4F     
 1008  02:7BD0  C0 07             dw $07c0,$0ffc,$0fff,$0fff,$187f,$0024,$0004,$0000
       02:7BD2  FC 0F     
       02:7BD4  FF 0F     
       02:7BD6  FF 0F     
       02:7BD8  7F 18     
       02:7BDA  24 00     
       02:7BDC  04 00     
       02:7BDE  00 00     
 1009  02:7BE0  00 40             dw $4000,$6000,$f000,$7000,$3800,$3800,$3c00,$4c00
       02:7BE2  00 60     
       02:7BE4  00 F0     
       02:7BE6  00 70     
       02:7BE8  00 38     
       02:7BEA  00 38     
       02:7BEC  00 3C     
       02:7BEE  00 4C     
 1010  02:7BF0  00 04             dw $0400,$0c00,$0be0,$0ff0,$187e,$0024,$0004,$0000
       02:7BF2  00 0C     
       02:7BF4  E0 0B     
       02:7BF6  F0 0F     
       02:7BF8  7E 18     
       02:7BFA  24 00     
       02:7BFC  04 00     
       02:7BFE  00 00     
 1011  02:7C00  50 FA             dw $fa50,$1d48,$e0a0,$feb0,$fc18,$fd60,$e1a0,$c180
       02:7C02  48 1D     
       02:7C04  A0 E0     
       02:7C06  B0 FE     
       02:7C08  18 FC     
       02:7C0A  60 FD     
       02:7C0C  A0 E1     
       02:7C0E  80 C1     
 1012  02:7C10  A0 33             dw $33a0,$c420,$36d0,$de38,$fe10,$0704,$0300,$0080
       02:7C12  20 C4     
       02:7C14  D0 36     
       02:7C16  38 DE     
       02:7C18  10 FE     
       02:7C1A  04 07     
       02:7C1C  00 03     
       02:7C1E  80 00     
 1013  02:7C20  C8 1F             dw $1fc8,$fec8,$fd90,$0090,$0338,$0320,$0fa0,$27a0
       02:7C22  C8 FE     
       02:7C24  90 FD     
       02:7C26  90 00     
       02:7C28  38 03     
       02:7C2A  20 03     
       02:7C2C  A0 0F     
       02:7C2E  A0 27     
 1014  02:7C30  80 F3             dw $f380,$c010,$0f10,$3e68,$fe18,$0704,$0300,$0080
       02:7C32  10 C0     
       02:7C34  10 0F     
       02:7C36  68 3E     
       02:7C38  18 FE     
       02:7C3A  04 07     
       02:7C3C  00 03     
       02:7C3E  80 00     
 1015  02:7C40  38 00             dw $0038,$0038,$0270,$0170,$00f8,$00e0,$1060,$1860
       02:7C42  38 00     
       02:7C44  70 02     
       02:7C46  70 01     
       02:7C48  F8 00     
       02:7C4A  E0 00     
       02:7C4C  60 10     
       02:7C4E  60 18     
 1016  02:7C50  60 0C             dw $0c60,$3ff0,$fff0,$fe78,$fe18,$0704,$0300,$0080
       02:7C52  F0 3F     
       02:7C54  F0 FF     
       02:7C56  78 FE     
       02:7C58  18 FE     
       02:7C5A  04 07     
       02:7C5C  00 03     
       02:7C5E  80 00     
 1017  02:7C60  00 00             dw $0000,$0000,$0000,$0000,$0000,$0000,$0000,$0000
       02:7C62  00 00     
       02:7C64  00 00     
       02:7C66  00 00     
       02:7C68  00 00     
       02:7C6A  00 00     
       02:7C6C  00 00     
       02:7C6E  00 00     
 1018  02:7C70  00 00             dw $0000,$0000,$0000,$0a00,$de00,$0700,$0300,$0080
       02:7C72  00 00     
       02:7C74  00 00     
       02:7C76  00 0A     
       02:7C78  00 DE     
       02:7C7A  00 07     
       02:7C7C  00 03     
       02:7C7E  80 00     
 1019                     
 1020  02:7C80            spr_pattern_end:
 1021                     
 1022           1800      spr_pattern_size        .equ    spr_pattern_end-spr_pattern
 1023                     
 1024                             ;; satb
 1025           2200              .bss
 1026  --:2200            satb    .ds 512 ; the local SATB
#[1]   same.asm
#[2]   chrdriver.asm
   10                             .include "chrdriver.asm"
    1           2400              .bss
    2                     
    3           0080      CH_MAX_CHR      .equ    128
    4                     
    5  --:2400            CH_xl:  .ds     CH_MAX_CHR
    6  --:2480            CH_xh:  .ds     CH_MAX_CHR
    7  --:2500            CH_yl:  .ds     CH_MAX_CHR
    8  --:2580            CH_yh:  .ds     CH_MAX_CHR
    9                     
   10  --:2600            CH_dxl:  .ds     CH_MAX_CHR
   11  --:2680            CH_dxh:  .ds     CH_MAX_CHR
   12  --:2700            CH_dyl:  .ds     CH_MAX_CHR
   13  --:2780            CH_dyh:  .ds     CH_MAX_CHR
   14                     
   15  --:2800            CH_dir: .ds     CH_MAX_CHR
   16  --:2880            CH_vel: .ds     CH_MAX_CHR
   17                     
   18  --:2900            CH_procptrl:    .ds     CH_MAX_CHR
   19  --:2980            CH_procptrh:    .ds     CH_MAX_CHR
   20                     
   21  --:2A00            CH_sprpatl:      .ds     CH_MAX_CHR
   22  --:2A80            CH_sprpath:      .ds     CH_MAX_CHR
   23  --:2B00            CH_spratrl:      .ds     CH_MAX_CHR
   24  --:2B80            CH_spratrh:      .ds     CH_MAX_CHR
   25                     
   26  --:2C00            CH_sprdx:       .ds     CH_MAX_CHR
   27  --:2C80            CH_sprdy:       .ds     CH_MAX_CHR
   28                     
   29  --:2D00            CH_coldx:       .ds     CH_MAX_CHR      ;collision
   30  --:2D80            CH_coldy:       .ds     CH_MAX_CHR
   31                     
   32  --:2E00            CH_regist:       .ds     CH_MAX_CHR     ;ÊäµÊäóÂäõ
   33                     
   34                     ;CH_flag:        .ds     CH_MAX_CHR      ;„Éï„É©„Ç∞
   35                     ;CH_flag_damaged:        .equ    1       ;„ÉÄ„É°„Éº„Ç∏Âèó„Åë„Åü„Éï„É©„Ç∞
   36                     
   37  --:2E80            CH_damaged_class:       .ds    CH_MAX_CHR      ;„ÉÄ„É°„Éº„Ç∏„ÇíÂèó„Åë„ÅüÊôÇ„ÅÆÂá¶ÁêÜ
   38                     
   39  --:2F00            CH_var0:        .ds     CH_MAX_CHR      ;Ê±éÁî®ÔºàÁî®ÈÄî„ÅØ„Ç≠„É£„É©„ÇØ„Çø„Å´„Çà„Å£„Å¶Áï∞„Å™„ÇãÔºâ
   40  --:2F80            CH_var1:        .ds     CH_MAX_CHR      ;Ê±éÁî®ÔºàÁî®ÈÄî„ÅØ„Ç≠„É£„É©„ÇØ„Çø„Å´„Çà„Å£„Å¶Áï∞„Å™„ÇãÔºâ
   41  --:3000            CH_var2:        .ds     CH_MAX_CHR      ;Ê±éÁî®ÔºàÁî®ÈÄî„ÅØ„Ç≠„É£„É©„ÇØ„Çø„Å´„Çà„Å£„Å¶Áï∞„Å™„ÇãÔºâ
   42                     ;CH_var3:        .ds     CH_MAX_CHR      ;Ê±éÁî®ÔºàÁî®ÈÄî„ÅØ„Ç≠„É£„É©„ÇØ„Çø„Å´„Çà„Å£„Å¶Áï∞„Å™„ÇãÔºâ
   43                     
   44  --:3080            CH_grp_child:   .ds     CH_MAX_CHR      ; Â≠ê‰æõ
   45  --:3100            CH_grp_parent:  .ds     CH_MAX_CHR      ; Ë¶™
   46                     
   47  --:3180            CH_role_class:  .ds     CH_MAX_CHR
   48  --:3200            CH_role_next:   .ds     CH_MAX_CHR
   49  --:3280            CH_role_prev:   .ds     CH_MAX_CHR
   50                     
   51  --:3300            CH_spr_class:   .ds     CH_MAX_CHR
   52  --:3380            CH_spr_next:   .ds     CH_MAX_CHR
   53  --:3400            CH_spr_prev:   .ds     CH_MAX_CHR
   54                     
   55                     ;
   56                     
   57                     ;
   58                     ; role class
   59                     ;
   60           0013      CDRV_MAX_ROLE_CLASS     .equ    19
   61                     
   62           0001      CDRV_ROLE_PLAYER        .equ    1
   63           0002      CDRV_ROLE_PBULLET_M1    .equ    2
   64           0003      CDRV_ROLE_PBULLET_M2    .equ    3
   65           0004      CDRV_ROLE_PBULLET_M3    .equ    4
   66           0005      CDRV_ROLE_PBULLET_M4    .equ    5
   67           0006      CDRV_ROLE_PBULLET_M5    .equ    6
   68           0007      CDRV_ROLE_PBULLET_M6    .equ    7
   69           0008      CDRV_ROLE_EBULLET       .equ    8
   70           0009      CDRV_ROLE_ENEMY_S1      .equ    9
   71           000A      CDRV_ROLE_ENEMY_S2      .equ    10
   72           000B      CDRV_ROLE_ENEMY_G1      .equ    11
   73           000C      CDRV_ROLE_ENEMY_G2      .equ    12
   74           000D      CDRV_ROLE_ENEMY_G3      .equ    13
   75           000E      CDRV_ROLE_ENEMY_G4      .equ    14
   76           000F      CDRV_ROLE_ITEM_S        .equ    15
   77           0010      CDRV_ROLE_ITEM_G        .equ    16
   78           0011      CDRV_ROLE_EFFECT        .equ    17
   79           0012      CDRV_ROLE_BONUS         .equ    18
   80                     
   81                     ;
   82                     ; sprite class
   83                     ;
   84           000D      CDRV_MAX_SPR_CLASS:     .equ    13
   85                     
   86           0002      CDRV_SPR_PLAYER         .equ    2
   87           0007      CDRV_SPR_PBULLET_M1     .equ    7
   88           0007      CDRV_SPR_PBULLET_M2     .equ    7
   89           0007      CDRV_SPR_PBULLET_M3     .equ    7
   90           0007      CDRV_SPR_PBULLET_M4     .equ    7
   91           0003      CDRV_SPR_EBULLET        .equ    3
   92           0004      CDRV_SPR_ENEMY_S1       .equ    4
   93           0005      CDRV_SPR_ENEMY_S2       .equ    5
   94           0009      CDRV_SPR_ENEMY_G1       .equ    9
   95           0008      CDRV_SPR_ENEMY_G2       .equ    8
   96           0008      CDRV_SPR_ENEMY_G3       .equ    8
   97           000A      CDRV_SPR_ENEMY_G4       .equ    10
   98           0006      CDRV_SPR_ITEM_S         .equ    6
   99           000B      CDRV_SPR_ITEM_G         .equ    11
  100           000C      CDRV_SPR_EFFECT         .equ    12
  101           0008      CDRV_SPR_EFFECT_G       .equ    8
  102           0005      CDRV_SPR_EFFECT_S       .equ    5
  103           0004      CDRV_SPR_EFFECT_DAMAGE  .equ    4
  104           0001      CDRV_SPR_BONUS          .equ    1
  105                     
  106           003C      CDRV_MAX_SPRITE         .equ    60      ; „Ç≠„É£„É©„ÇØ„Çø„Éâ„É©„Ç§„Éê„ÅßÂâ≤„ÇäÂΩì„Å¶„ÇãÊúÄÂ§ß„Çπ„Éó„É©„Ç§„ÉàÊï∞
  107                     
  108  --:3480            CDrv_role_class_table:  .ds     CDRV_MAX_ROLE_CLASS     ; „ÇØ„É©„Çπ„Åî„Å®„ÅÆÂÖàÈ†≠„Ç≠„É£„É©
  109  --:3493            CDrv_role_class_chrnum: .ds     CDRV_MAX_ROLE_CLASS     ; „ÇØ„É©„Çπ„Åî„Å®„ÅÆ„Ç≠„É£„É©Êï∞
  110  --:34A6            CDrv_role_class_unusedchrnum: .ds     CDRV_MAX_ROLE_CLASS     ; „ÇØ„É©„Çπ„Åî„Å®„ÅÆÊú™‰ΩøÁî®„Ç≠„É£„É©Êï∞
  111                     
  112  --:34B9            CDrv_spr_class_table:           .ds     CDRV_MAX_SPR_CLASS      ; „Çπ„Éó„É©„Ç§„Éà„ÇØ„É©„Çπ„ÅÆÂÖàÈ†≠„Ç≠„É£„É©
  113  --:34C6            CDrv_spr_class_last_table:      .ds     CDRV_MAX_SPR_CLASS      ; „Çπ„Éó„É©„Ç§„Éà„ÇØ„É©„Çπ„ÅÆÊúÄÂæå„Ç≠„É£„É©
  114  --:34D3            CDrv_spr_class_chrnum:          .ds     CDRV_MAX_SPR_CLASS      ; „Çπ„Éó„É©„Ç§„Éà„ÇØ„É©„Çπ„Åî„Å®„ÅÆ„Ç≠„É£„É©Êï∞
  115  --:34E0            CDrv_spr_class_allocnum:        .ds     CDRV_MAX_SPR_CLASS      ; „Çπ„Éó„É©„Ç§„Éà„ÇØ„É©„Çπ„Åî„Å®„ÅÆ„Çπ„Éó„É©„Ç§„ÉàÂâ≤„ÇäÂΩì„Å¶Êï∞
  116                     
  117  --:34ED            CDrv_chrnum:    .ds     1       ; ÂÖ®„Ç≠„É£„É©Êï∞
  118                     
  119  --:34EE            CH_procptr_tmp: .ds     2
  120                     
  121                     
  122                     
  123           7C80              .code
  124           0001              .bank   MAIN_BANK
  125                     
  126                                     ; role class „Åî„Å®„ÅÆÊúÄÂ§ß„Ç≠„É£„É©„ÇØ„ÇøÊï∞
  127  01:C227            CDrv_role_class_maxchr:
  128  01:C227  00                .db     0
  129  01:C228  01                .db     1               ; player
  130  01:C229  0F 0F 0F          .db     15,15,15,15,9,9 ; player bullet
       01:C22C  0F 09 09  
  131  01:C22F  18                .db     24              ; enemy bullet
  132  01:C230  10 10             .db     16,16           ; enemy (sky)
  133  01:C232  10 10 08          .db     16,16,8,8       ; enemy (ground)
       01:C235  08        
  134  01:C236  04 08             .db     4,8             ; item
  135  01:C238  10                .db     16              ; effect
  136  01:C239  08                .db     8               ; bonus display
  137                     
  138                                     ; sprite class„Çí„Çπ„Éó„É©„Ç§„ÉàÂâ≤„ÇäÂΩì„Å¶ÂÑ™ÂÖàÈ†Ü‰Ωç„ÅÆ‰Ωé„ÅÑÈ†Ü„Å´‰∏¶„Åπ„Åü„É™„Çπ„ÉàÔºàÊúÄÂæå„ÅØ 0 Ôºâ
  139  01:C23A            CDrv_spr_class_alloc_prty:
  140  01:C23A  0C 07 0B          .db     12, 7,11, 6,10, 8, 9, 5, 4, 3, 2, 1, 0
       01:C23D  06 0A 08  
       01:C240  09 05 04  
       01:C243  03 02 01  
       01:C246  00        
  141                     
  142                                     ; sprite class„Åî„Å®„ÅÆÊúÄÂ∞è„Çπ„Éó„É©„Ç§„ÉàÂâ≤„ÇäÂΩì„Å¶Êï∞
  143  01:C247            CDrv_alloc_min:
  144  01:C247  00                .db     0
  145  01:C248  00                .db     0               ; bonus
  146  01:C249  01                .db     1               ; player
  147  01:C24A  18                .db     24              ; enemy bullet
  148  01:C24B  08 04             .db     8,4             ; enemy (sky)
  149  01:C24D  02                .db     2               ; item (sky)
  150  01:C24E  07                .db     7               ; player bullet
  151  01:C24F  04 08 02          .db     4,8,2           ; enemy (ground)
  152  01:C252  00                .db     0               ; item (ground)
  153  01:C253  00                .db     0               ; effect
  154                     
  155                                     ; sprite class„Åî„Å®„ÅÆÊúÄÂ§ß„Çπ„Éó„É©„Ç§„ÉàÂâ≤„ÇäÂΩì„Å¶Êï∞
  156  01:C254            CDrv_alloc_max:
  157  01:C254  00                .db     0
  158  01:C255  3C                .db     60              ; bonus
  159  01:C256  3C                .db     60              ; player
  160  01:C257  3C                .db     60              ; enemy bullet
  161  01:C258  3C 3C             .db     60,60           ; enemy (sky)
  162  01:C25A  3C                .db     60              ; item (sky)
  163  01:C25B  07                .db     7               ; player bullet
  164  01:C25C  3C 3C 3C          .db     60,60,60        ; enemy (ground)
  165  01:C25F  3C                .db     60              ; item (ground)
  166  01:C260  3C                .db     60              ; effect
  167                     
  168                     
  169                     
  170                     ;
  171                     ; initialize chr driver
  172                     ;
  173  01:C261            CDRVinit:
  174  01:C261  9C ED 34          stz     CDrv_chrnum
  175                                     ; clear role table
  176  01:C264  A2 12             ldx     #CDRV_MAX_ROLE_CLASS-1
  177  01:C266            .loop1:
  178  01:C266  9E 80 34          stz     CDrv_role_class_table,x
  179  01:C269  9E 93 34          stz     CDrv_role_class_chrnum,x
  180  01:C26C  BD 27 C2          lda     CDrv_role_class_maxchr,x
  181  01:C26F  9D A6 34          sta     CDrv_role_class_unusedchrnum,x
  182  01:C272  CA                dex
  183  01:C273  D0 F1             bne     .loop1
  184                                     ; set chrs to unused role link
  185  01:C275  A9 01             lda     #1
  186  01:C277  8D 80 34          sta     CDrv_role_class_table
  187  01:C27A  AA                tax
  188  01:C27B            .loop2:
  189  01:C27B  3A                dec     a
  190  01:C27C  9D 80 32          sta     CH_role_prev,x
  191  01:C27F  1A                inc     a
  192  01:C280  1A                inc     a
  193  01:C281  9D 00 32          sta     CH_role_next,x
  194  01:C284  9E 80 31          stz     CH_role_class,x
  195  01:C287  9E 00 33          stz     CH_spr_class,x
  196  01:C28A  9E 80 2E          stz     CH_damaged_class,x
  197  01:C28D  9E 00 31          stz     CH_grp_parent,x
  198  01:C290  9E 80 30          stz     CH_grp_child,x
  199  01:C293  E8                inx
  200  01:C294  E0 80             cpx     #CH_MAX_CHR
  201  01:C296  D0 E3             bne     .loop2
  202  01:C298  CA                dex
  203  01:C299  8E 93 34          stx     CDrv_role_class_chrnum
  204  01:C29C  9E 00 32          stz     CH_role_next,x  ; ÊúÄÂæå„ÅÆ„Ç≠„É£„É©„ÅÆÊ¨°„ÅØ„Å™„ÅÑ„ÅÆ„Åß 0 „Å´„Åô„Çã
  205                     
  206                                     ; clear spr class
  207  01:C29F  A2 0C             ldx     #CDRV_MAX_SPR_CLASS-1
  208  01:C2A1            .loop3:
  209  01:C2A1  9E B9 34          stz     CDrv_spr_class_table,x
  210  01:C2A4  9E C6 34          stz     CDrv_spr_class_last_table,x
  211  01:C2A7  9E D3 34          stz     CDrv_spr_class_chrnum,x
  212  01:C2AA  CA                dex
  213  01:C2AB  10 F4             bpl     .loop3
  214                     
  215  01:C2AD  60                rts
  216                     ;
  217                     ; @param        z_tmp0  role class
  218                     ; @param        z_tmp1  spr class
  219                     ; @param        z_tmp2  Ë¶™„Ç≠„É£„É©
  220                     ; @return       y       „Ç≠„É£„É©Áï™Âè∑
  221                     ;               c flag  1„Å™„Çâ„Ç≠„É£„É©Ââ≤„ÇäÂΩì„Å¶Â§±Êïó
  222                     ; @savereg      x
  223  01:C2AE            CDRVaddChr:
  224           2011      .arg_role_class .equ    z_tmp0
  225           2012      .arg_spr_class  .equ    z_tmp1
  226           2013      .arg_grp_parent .equ    z_tmp2
  227                     
  228  01:C2AE  A4 11             ldy     <.arg_role_class
  229           0001              .if     1
  230  01:C2B0  B9 A6 34          lda     CDrv_role_class_unusedchrnum,y
  231                             .else
  234                             .endif
  235  01:C2B3  F0 74             beq     .nochr
  236                     
  237  01:C2B5  AD 80 34          lda     CDrv_role_class_table
  238  01:C2B8  F0 6F             beq     .nochr
  239                     
  240  01:C2BA  DA                phx
  241                     
  242  01:C2BB  A8                tay     ; y = Êñ∞„Åó„ÅÑ„Ç≠„É£„É©
  243  01:C2BC  62                cla
  244  01:C2BD  99 80 2E          sta     CH_damaged_class,y
  245                                     ; Êú™‰ΩøÁî®„Ç≠„É£„É©„ÅÆÊ¨°„ÅÆ„Ç≠„É£„É©„ÇíÊú™‰ΩøÁî®„É™„Çπ„Éà„ÅÆÂÖàÈ†≠„Å´ÁßªÂãï
  246  01:C2C0  BE 00 32          ldx     CH_role_next,y
  247  01:C2C3  9E 80 32          stz     CH_role_prev,x
  248  01:C2C6  8E 80 34          stx     CDrv_role_class_table
  249  01:C2C9  CE 93 34          dec     CDrv_role_class_chrnum
  250                                     ; Êñ∞„Åó„ÅÑ„Ç≠„É£„É©„Çírole class„É™„Çπ„Éà„ÅÆÂÖàÈ†≠„Å´ÊåøÂÖ•
  251  01:C2CC  A6 11             ldx     <.arg_role_class
  252  01:C2CE  FE 93 34          inc     CDrv_role_class_chrnum,x
  253  01:C2D1  DE A6 34          dec     CDrv_role_class_unusedchrnum,x
  254  01:C2D4  8A                txa
  255  01:C2D5  99 80 31          sta     CH_role_class,y
  256                     
  257  01:C2D8  BD 80 34          lda     CDrv_role_class_table,x
  258  01:C2DB  99 00 32          sta     CH_role_next,y
  259  01:C2DE  48                pha
  260  01:C2DF  98                tya
  261  01:C2E0  9D 80 34          sta     CDrv_role_class_table,x
  262                     
  263  01:C2E3  FA                plx
  264  01:C2E4  9D 80 32          sta     CH_role_prev,x
  265                     
  266  01:C2E7  62                cla
  267  01:C2E8  99 80 32          sta     CH_role_prev,y
  268                     
  269                                     ; Êñ∞„Åó„ÅÑ„Ç≠„É£„É©„Çíspr class„É™„Çπ„Éà„ÅÆÂÖàÈ†≠„Å´ÊåøÂÖ•
  270  01:C2EB  A6 12             ldx     <.arg_spr_class
  271  01:C2ED  FE D3 34          inc     CDrv_spr_class_chrnum,x
  272  01:C2F0  8A                txa
  273  01:C2F1  99 00 33          sta     CH_spr_class,y
  274                     
  275  01:C2F4  BD B9 34          lda     CDrv_spr_class_table,x
  276  01:C2F7  99 80 33          sta     CH_spr_next,y
  277  01:C2FA  48                pha
  278                                     ; Âàù„ÇÅ„Å¶„ÅÆ„Ç≠„É£„É©„ÅÆÂ†¥Âêà„ÅØ„ÄÅÊúÄÂæå„ÅÆ„Ç≠„É£„É©„Åß„ÇÇ„ÅÇ„Çã
  279  01:C2FB  D0 04             bne     .00
  280  01:C2FD  98                tya
  281  01:C2FE  9D C6 34          sta     CDrv_spr_class_last_table,x
  282  01:C301            .00:
  283                     
  284  01:C301  98                tya
  285  01:C302  9D B9 34          sta     CDrv_spr_class_table,x
  286                     
  287  01:C305  FA                plx                     ; x= ËøΩÂä†„Åó„Åü„Ç≠„É£„É©„ÅÆÊ¨°„ÅÆ„Ç≠„É£„É©
  288  01:C306  9D 00 34          sta     CH_spr_prev,x
  289                     
  290  01:C309  62                cla
  291  01:C30A  99 00 34          sta     CH_spr_prev,y
  292                     
  293                     
  294                                     ; „Ç∞„É´„Éº„Éó„ÅÆ„É™„É≥„ÇØ„ÅÆÊú´Â∞æ„Å´Êñ∞„Åó„ÅÑ„Ç≠„É£„É©„ÇíÈÄ£Áµê„Åô„Çã
  295  01:C30D  AD 13 20          lda     .arg_grp_parent
  296  01:C310  99 00 31          sta     CH_grp_parent,y
  297  01:C313  F0 0B             beq     .endgrp
  298                     
  299  01:C315            .findchild:
  300  01:C315  AA                tax
  301  01:C316  BD 80 30          lda     CH_grp_child,x  ;„Ç∞„É´„Éº„Éó„ÅÆÊúÄÂæå„ÇíÊé¢„Åô
  302  01:C319  D0 FA             bne     .findchild
  303                     
  304  01:C31B  98                tya
  305  01:C31C  9D 80 30          sta     CH_grp_child,x  ;ÊúÄÂæå„ÅÆ„Ç≠„É£„É©„ÅÆÂ≠ê‰æõ„Å´Êñ∞„Åó„ÅÑ„Ç≠„É£„É©„Çí„Çª„ÉÉ„Éà
  306  01:C31F  62                cla
  307  01:C320            .endgrp:
  308  01:C320  99 80 30          sta     CH_grp_child,y  ;a=0 Êñ∞„Åó„ÅÑ„Ç≠„É£„É©„ÅÆÂ≠ê‰æõ„ÅØ 0
  309                     
  310                     
  311                     
  312  01:C323  EE ED 34          inc     CDrv_chrnum
  313                     
  314  01:C326  FA                plx
  315  01:C327  18                clc
  316  01:C328  60                rts
  317                     
  318  01:C329            .nochr:
  319  01:C329  C2                cly
  320  01:C32A  38                sec
  321  01:C32B  60                rts
  322                     ;
  323                     ; @param        x       „Ç≠„É£„É©Áï™Âè∑
  324                     ; @save         x
  325                     ;
  326                     ; ‚ÄªÊ≥®ÊÑè
  327                     ;  „Ç≠„É£„É©„ÇØ„Çø„Çí„Éà„É©„Éê„Éº„Çπ„Åó„Å¶„ÅÑ„ÇãÊúÄ‰∏≠„Å´ÂÆüË°å„Åô„Çã„Å®„ÄÅÊ¨°„ÅÆ„Ç≠„É£„É©„ÇØ„Çø„ÅåÊú™‰ΩøÁî®„ÅÆ„ÇÇ„ÅÆ„Å´„Å™„Å£„Å¶„Åó
  328                     ;  „ÅÇ„Çâ„Åã„Åò„ÇÅÊ¨°„ÅÆ„Ç≠„É£„É©„ÇØ„Çø„Çí‰øùÁÆ°„Åó„Å¶„Åä„ÅÑ„Å¶„Åã„Çâ„Åì„Çå„ÇíÂÆüË°å„Åô„Çã„Åì„Å®„ÄÇ
  329  01:C32C            CDRVremoveChr:
  330  01:C32C  BD 00 31          lda     CH_grp_parent,x
  331  01:C32F  D0 05             bne     .child
  332  01:C331  BD 80 30          lda     CH_grp_child,x
  333  01:C334  D0 04             bne     .all
  334                                     ;Ëá™ÂàÜ„Åå„Ç∞„É´„Éº„Éó„Å´Â±û„Åó„Å¶„Å™„ÅÑ„Åã„ÄÅÂ≠ê‰æõ„ÅÆÂ†¥Âêà„ÅØ„ÄÅËá™ÂàÜ„Å†„ÅëÊ∂à„Åô
  335  01:C336            .child:
  336  01:C336  18                clc
  337  01:C337  4C 4A C3          jmp     CDRVremove1Chr
  338                     
  339                                     ;Ëá™ÂàÜ„ÅåË¶™„ÅÆÂ†¥Âêà„ÅØ„ÄÅÂ≠ê‰æõ„ÇÇ„Åæ„Å®„ÇÅ„Å¶Ê∂à„Åô
  340  01:C33A            .all:
  341  01:C33A  DA                phx
  342  01:C33B            .allloop:
  343  01:C33B  48                pha                             ;a=child
  344  01:C33C  38                sec
  345  01:C33D  20 4A C3          jsr     CDRVremove1Chr
  346  01:C340  FA                plx                             ;x=child
  347  01:C341  F0 05             beq     .allend
  348  01:C343  BD 80 30          lda     CH_grp_child,x
  349  01:C346  80 F3             bra     .allloop
  350  01:C348            .allend:
  351  01:C348  FA                plx
  352  01:C349  60                rts
  353                     
  354                     
  355                     ; @param        c=1     „Ç∞„É´„Éº„Éó„ÅÆ„É™„É≥„ÇØ‰ªò„ÅëÊõø„Åà„Çí„Åó„Å™„ÅÑÔºà„Ç∞„É´„Éº„Éó„ÅÆ„Ç≠„É£„É©„Çí„Åæ„Å®„ÇÅ„Å¶ÂâäÈô§„Åô„ÇãÂ†¥Âêà
  356                     
  357  01:C34A            CDRVremove1Chr:
  358  01:C34A  08                php
  359                                     ; „Ç≠„É£„É©„Çírole class„É™„Çπ„Éà„Åã„ÇâÈô§Âéª
  360                                     ; role class „ÅÆ„Ç≠„É£„É©Êï∞„ÇíÊ∏õ„Çâ„Åô
  361  01:C34B  BC 80 31          ldy     CH_role_class,x
  362  01:C34E  02                sxy
  363  01:C34F  DE 93 34          dec     CDrv_role_class_chrnum,x
  364  01:C352  FE A6 34          inc     CDrv_role_class_unusedchrnum,x
  365  01:C355  02                sxy
  366                     
  367  01:C356  BD 00 32          lda     CH_role_next,x
  368  01:C359  BC 80 32          ldy     CH_role_prev,x
  369  01:C35C  F0 09             beq     .root
  370  01:C35E  99 00 32          sta     CH_role_next,y
  371  01:C361  42                say
  372  01:C362  99 80 32          sta     CH_role_prev,y
  373  01:C365  80 0B             bra     .j1
  374                                     ; role class „ÅÆ„É™„Çπ„Éà„ÅÆÂÖàÈ†≠„Å†„Å£„ÅüÂ†¥Âêà„ÅØ CDrv_role_class_table „ÇíÂ§âÊõ¥
  375  01:C367  BC 80 31  .root:  ldy     CH_role_class,x
  376  01:C36A  99 80 34          sta     CDrv_role_class_table,y
  377  01:C36D  A8                tay
  378  01:C36E  62                cla
  379  01:C36F  99 80 32          sta     CH_role_prev,y
  380  01:C372            .j1:
  381                                     ; „Ç≠„É£„É©„Çíspr class„É™„Çπ„Éà„Åã„ÇâÈô§Âéª
  382  01:C372  BC 00 33          ldy     CH_spr_class,x
  383  01:C375  02                sxy
  384  01:C376  DE D3 34          dec     CDrv_spr_class_chrnum,x         ; dec nnnn,y „Åå„Å™„ÅÑ„ÅÆ„Åß‰∏ÄÊôÇÁöÑ„Å´x/y„ÇíÂÖ•„ÇåÊõø„Åà„Å¶ÂØæÂá¶
  385  01:C379  02                sxy
  386                     
  387  01:C37A  BD 80 33          lda     CH_spr_next,x
  388                                             ; ÊúÄÂæå„ÅÆ„Ç≠„É£„É©„Å™„Çâ„ÄÅÊúÄÂæå„ÅÆ„Ç≠„É£„É©„ÇíÊõ¥Êñ∞
  389  01:C37D  D0 0B             bne     .00
  390  01:C37F  48                pha
  391  01:C380  BD 00 34          lda     CH_spr_prev,x
  392  01:C383  BC 00 33          ldy     CH_spr_class,x
  393  01:C386  99 C6 34          sta     CDrv_spr_class_last_table,y
  394  01:C389  68                pla
  395  01:C38A            .00
  396  01:C38A  BC 00 34          ldy     CH_spr_prev,x
  397  01:C38D  F0 09             beq     .root2
  398  01:C38F  99 80 33          sta     CH_spr_next,y
  399  01:C392  42                say
  400  01:C393  99 00 34          sta     CH_spr_prev,y
  401  01:C396  80 0B             bra     .j2
  402  01:C398  BC 00 33  .root2: ldy     CH_spr_class,x
  403  01:C39B  99 B9 34          sta     CDrv_spr_class_table,y
  404  01:C39E  A8                tay
  405  01:C39F  62                cla
  406  01:C3A0  99 00 34          sta     CH_spr_prev,y
  407  01:C3A3            .j2:
  408                     
  409                                     ;„Ç∞„É´„Éº„Éó„Å´Â±û„Åó„Å¶„ÅÑ„ÇãÂ†¥Âêà„ÄÅ„Ç∞„É´„Éº„Éó„É™„É≥„ÇØ„Åã„ÇâËá™ÂàÜ„ÇíÂ§ñ„Åô
  410                                     ;„Ç∞„É´„Éº„Éó„ÅÆ„É™„É≥„ÇØ„É™„Çπ„Éà„ÅØ‰∏ÄÊñπÂêë„Å™„ÅÆ„Åß„ÄÅÂÖàÈ†≠„Åã„ÇâÈ†Ü„Å´Êé¢„ÅôÂøÖË¶Å„Åå„ÅÇ„Çã
  411           2020      .tmp_chrno      .equ    z_tmp15
  412  01:C3A3  28                plp
  413  01:C3A4  B0 15             bcs     .addunusedlist          ;c=1 Ôºà„Ç∞„É´„Éº„Éó„ÇíÂÖ®ÈÉ®ÂâäÈô§Ôºâ„ÅÆÂ†¥Âêà„ÅØ„Çπ„Ç≠„ÉÉ„Éó
  414                     
  415  01:C3A6  BD 00 31          lda     CH_grp_parent,x
  416  01:C3A9  F0 10             beq     .addunusedlist
  417                     
  418  01:C3AB  86 20             stx     <.tmp_chrno
  419  01:C3AD            .find:
  420  01:C3AD  A8                tay
  421  01:C3AE  B9 80 30          lda     CH_grp_child,y
  422  01:C3B1  C5 20             cmp     <.tmp_chrno
  423  01:C3B3  D0 F8             bne     .find
  424                     
  425  01:C3B5  BD 80 30          lda     CH_grp_child,x
  426  01:C3B8  99 80 30          sta     CH_grp_child,y
  427                     
  428                     
  429                     
  430  01:C3BB            .addunusedlist:
  431                                     ; „Ç≠„É£„É©„ÇíÊú™‰ΩøÁî®„É™„Çπ„Éà„Å´ÊåøÂÖ•
  432  01:C3BB  AC 80 34          ldy     CDrv_role_class_table
  433  01:C3BE  8E 80 34          stx     CDrv_role_class_table
  434  01:C3C1  98                tya
  435  01:C3C2  9D 00 32          sta     CH_role_next,x
  436  01:C3C5  9E 80 32          stz     CH_role_prev,x
  437  01:C3C8  8A                txa
  438  01:C3C9  99 80 32          sta     CH_role_prev,y
  439  01:C3CC  EE 93 34          inc     CDrv_role_class_chrnum
  440  01:C3CF  9E 80 31          stz     CH_role_class,x
  441  01:C3D2  9E 00 33          stz     CH_spr_class,x
  442                     
  443  01:C3D5  CE ED 34          dec     CDrv_chrnum
  444                     
  445  01:C3D8  60                rts
  446                     ;
  447                     ; move chrs
  448                     ;
  449  01:C3D9            CDRVmove:
  450  01:C3D9  A0 01             ldy     #1
  451  01:C3DB            .loop:
  452  01:C3DB  B9 80 34          lda     CDrv_role_class_table,y
  453  01:C3DE  F0 1F             beq     .next
  454                                     ; move chrs in one role class
  455  01:C3E0  5A                phy
  456  01:C3E1            .chrloop:
  457  01:C3E1  AA                tax
  458  01:C3E2  A9 C3             lda     #HIGH(.endmove-1)       ;Ë¶ÅÊ≥®ÊÑè push„Åô„Çã„ÅÆ„ÅØ Êàª„Çä„Ç¢„Éâ„É¨„Çπ-1
  459  01:C3E4  48                pha
  460  01:C3E5  A9 F6             lda     #LOW(.endmove-1)
  461  01:C3E7  48                pha
  462                     
  463  01:C3E8  BD 00 29          lda     CH_procptrl,x
  464  01:C3EB  8D EE 34          sta     CH_procptr_tmp
  465  01:C3EE  BD 80 29          lda     CH_procptrh,x
  466  01:C3F1  8D EF 34          sta     CH_procptr_tmp+1
  467  01:C3F4  6C EE 34          jmp     [CH_procptr_tmp]
  468  01:C3F7            .endmove:
  469  01:C3F7  B0 0C             bcs     .remove
  470                     
  471  01:C3F9  BD 00 32          lda     CH_role_next,x
  472  01:C3FC            .nextchr:
  473  01:C3FC  D0 E3             bne     .chrloop
  474  01:C3FE  7A                ply
  475                                     ; next role class
  476  01:C3FF            .next:
  477  01:C3FF  C8                iny
  478  01:C400  C0 13             cpy     #CDRV_MAX_ROLE_CLASS
  479  01:C402  D0 D7             bne     .loop
  480  01:C404  60                rts
  481                     
  482                                     ; remove current chr
  483  01:C405            .remove:
  484  01:C405  BD 00 32          lda     CH_role_next,x
  485  01:C408  48                pha
  486  01:C409  20 2C C3          jsr     CDRVremoveChr
  487  01:C40C  68                pla
  488  01:C40D  80 ED             bra     .nextchr
  489                     ;
  490                     ;
  491                     ;
  492                     
  493                     
  494  01:C40F            CDRVsetSprite:
  495           2011      .satbptr        .equ    z_tmp0
  496           2013      .sprnum         .equ    z_tmp2
  497           2014      .allocnum       .equ    z_tmp3
  498           2015      .chrnum         .equ    z_tmp4
  499                     
  500           201A      .firstchr       .equ    z_tmp9
  501           201B      .chrnumsave     .equ    z_tmp10
  502                     
  503           2016      .chr1           .equ    z_tmp5
  504           2017      .chr2           .equ    z_tmp6
  505           2018      .chr3           .equ    z_tmp7
  506           2019      .chr4           .equ    z_tmp8
  507                     
  508  01:C40F  A9 00             lda     #LOW(satb)
  509  01:C411  85 11             sta     <.satbptr
  510  01:C413  A9 22             lda     #HIGH(satb)
  511  01:C415  85 12             sta     <.satbptr+1
  512                     
  513  01:C417  A9 3C             lda     #CDRV_MAX_SPRITE
  514  01:C419  85 13             sta     <.sprnum
  515                     
  516  01:C41B  C2                cly
  517  01:C41C  A2 01             ldx     #1
  518  01:C41E            .loop:
  519  01:C41E  BD E0 34          lda     CDrv_spr_class_allocnum,x
  520  01:C421  F0 74             beq     .next
  521  01:C423  85 14             sta     <.allocnum
  522                     
  523  01:C425  BD D3 34          lda     CDrv_spr_class_chrnum,x
  524  01:C428  F0 6D             beq     .next
  525  01:C42A  85 15             sta     <.chrnum
  526  01:C42C  85 1B             sta     <.chrnumsave
  527                     
  528  01:C42E  BD B9 34          lda     CDrv_spr_class_table,x
  529  01:C431  85 1A             sta     <.firstchr
  530  01:C433  DA                phx
  531  01:C434            .chrloop:
  532                                     ; set sprite to satb
  533  01:C434  AA                tax     ; x = „Ç≠„É£„É©Áï™Âè∑
  534                                     ; set y
  535  01:C435  BD 00 25          lda     CH_yl,x
  536  01:C438  0A                asl     a
  537  01:C439  08                php
  538  01:C43A  BD 80 25          lda     CH_yh,x
  539  01:C43D  38                sec
  540  01:C43E  FD 80 2C          sbc     CH_sprdy,x
  541  01:C441  28                plp
  542  01:C442  2A                rol     a
  543  01:C443  91 11             sta     [.satbptr],y
  544  01:C445  C8                iny
  545  01:C446  2A                rol     a
  546  01:C447  29 01             and     #1
  547  01:C449  91 11             sta     [.satbptr],y
  548  01:C44B  C8                iny
  549                                     ; set x
  550  01:C44C  BD 00 24          lda     CH_xl,x
  551  01:C44F  0A                asl     a
  552  01:C450  08                php
  553  01:C451  BD 80 24          lda     CH_xh,x
  554  01:C454  38                sec
  555  01:C455  FD 00 2C          sbc     CH_sprdx,x
  556  01:C458  28                plp
  557  01:C459  2A                rol     a
  558  01:C45A  91 11             sta     [.satbptr],y
  559  01:C45C  C8                iny
  560  01:C45D  2A                rol     a
  561  01:C45E  29 01             and     #1
  562  01:C460  91 11             sta     [.satbptr],y
  563  01:C462  C8                iny
  564                                     ; set pattern
  565  01:C463  BD 00 2A          lda     CH_sprpatl,x
  566  01:C466  91 11             sta     [.satbptr],y
  567  01:C468  C8                iny
  568  01:C469  BD 80 2A          lda     CH_sprpath,x
  569  01:C46C  91 11             sta     [.satbptr],y
  570  01:C46E  C8                iny
  571                                     ; set attribute
  572  01:C46F  BD 00 2B          lda     CH_spratrl,x
  573  01:C472  91 11             sta     [.satbptr],y
  574  01:C474  C8                iny
  575  01:C475  BD 80 2B          lda     CH_spratrh,x
  576  01:C478  91 11             sta     [.satbptr],y
  577  01:C47A  C8                iny
  578                                     ; y>=256 „Å´„Å™„Å£„Åü„Çâ .satbptr „Çí+256
  579  01:C47B  F0 37             beq     .addptr
  580                     
  581  01:C47D            .nextchr:
  582  01:C47D  BD 80 33          lda     CH_spr_next,x
  583                     
  584  01:C480  C6 13             dec     <.sprnum
  585  01:C482  C6 15             dec     <.chrnum
  586  01:C484  C6 14             dec     <.allocnum
  587  01:C486  D0 AC             bne     .chrloop
  588                     
  589  01:C488  A5 15             lda     <.chrnum   ; .chrnum == 0 ?
  590  01:C48A  D0 30             bne     .swap
  591  01:C48C  A5 1B             lda     <.chrnumsave
  592  01:C48E  C9 01             cmp     #1
  593  01:C490  F0 04             beq     .endswap
  594  01:C492  A6 1A             ldx     <.firstchr
  595  01:C494  80 26             bra     .swap
  596  01:C496            .endswap:
  597  01:C496  FA                plx                     ; x = sprite class
  598                     
  599  01:C497            .next:
  600  01:C497  E8                inx
  601  01:C498  E0 0D             cpx     #CDRV_MAX_SPR_CLASS
  602  01:C49A  D0 82             bne     .loop
  603                     
  604                                     ; clear rest of satb
  605  01:C49C  A5 13             lda     <.sprnum
  606  01:C49E  F0 11             beq     .end
  607  01:C4A0  62                cla
  608  01:C4A1            .clearloop:
  609  01:C4A1  91 11             sta     [.satbptr],y
  610  01:C4A3  C8                iny
  611  01:C4A4  91 11             sta     [.satbptr],y
  612  01:C4A6  42                say
  613  01:C4A7  18                clc
  614  01:C4A8  69 07             adc     #7
  615  01:C4AA  42                say
  616  01:C4AB  F0 0B             beq     .addptr2
  617  01:C4AD            .next2
  618  01:C4AD  C6 13             dec     <.sprnum
  619  01:C4AF  D0 F0             bne     .clearloop
  620  01:C4B1            .end:
  621  01:C4B1  60                rts
  622  01:C4B2            .ret:
  623  01:C4B2  FA                plx
  624  01:C4B3  60                rts
  625  01:C4B4            .addptr:
  626  01:C4B4  E6 12             inc     <.satbptr+1
  627  01:C4B6  80 C5             bra     .nextchr
  628  01:C4B8            .addptr2:
  629  01:C4B8  E6 12             inc     <.satbptr+1
  630  01:C4BA  80 F1             bra     .next2
  631                     
  632                                     ; „Çπ„Éó„É©„Ç§„Éà„ÅåÂâ≤„ÇäÂΩì„Å¶„Çâ„Çå„Åü„Ç≠„É£„É©„Å®„ÄÅ„Åù„ÅÜ„Åß„Å™„ÅÑ„Ç≠„É£„É©„ÇíÂÖ•„ÇåÊõø„Åà„Çã
  633  01:C4BC            .swap:
  634  01:C4BC  5A                phy
  635                                     ; x=chr2
  636  01:C4BD  BD 00 34          lda     CH_spr_prev,x
  637  01:C4C0  F0 33             beq     .swap2
  638  01:C4C2  BD 80 33          lda     CH_spr_next,x
  639  01:C4C5  F0 59             beq     .swap3
  640                                             ; ÂÖ•„ÇåÊõø„Åà„Ç≠„É£„É©„ÅåÈÄî‰∏≠„ÅÆÂ†¥Âêà
  641  01:C4C7  85 18             sta     <.chr3
  642  01:C4C9  BD 00 33          lda     CH_spr_class,x
  643  01:C4CC  A8                tay
  644  01:C4CD  B9 B9 34          lda     CDrv_spr_class_table,y
  645  01:C4D0  85 16             sta     <.chr1
  646  01:C4D2  B9 C6 34          lda     CDrv_spr_class_last_table,y
  647  01:C4D5  85 19             sta     <.chr4
  648                     
  649  01:C4D7  9E 80 33          stz     CH_spr_next,x
  650                     
  651  01:C4DA  8A                txa
  652  01:C4DB  99 C6 34          sta     CDrv_spr_class_last_table,y
  653                     
  654  01:C4DE  A6 16             ldx     <.chr1
  655  01:C4E0  A5 19             lda     <.chr4
  656  01:C4E2  9D 00 34          sta     CH_spr_prev,x
  657                     
  658  01:C4E5  22                sax
  659  01:C4E6  9D 80 33          sta     CH_spr_next,x
  660                     
  661  01:C4E9  A5 18             lda     <.chr3
  662  01:C4EB  99 B9 34          sta     CDrv_spr_class_table,y
  663                     
  664  01:C4EE  AA                tax
  665  01:C4EF  9E 00 34          stz     CH_spr_prev,x
  666                     
  667  01:C4F2  7A                ply
  668  01:C4F3  80 A1             bra     .endswap
  669                     
  670                                             ; ÂÖ•„ÇåÊõø„Åà„Ç≠„É£„É©„ÅåÂÖàÈ†≠„ÅÆÂ†¥Âêà
  671  01:C4F5            .swap2:
  672  01:C4F5  BD 80 33          lda     CH_spr_next,x
  673  01:C4F8  85 18             sta     <.chr3
  674  01:C4FA  BD 00 33          lda     CH_spr_class,x
  675  01:C4FD  A8                tay
  676  01:C4FE  B9 C6 34          lda     CDrv_spr_class_last_table,y
  677  01:C501  85 19             sta     <.chr4
  678                     
  679  01:C503  9E 80 33          stz     CH_spr_next,x
  680                     
  681  01:C506  8A                txa
  682  01:C507  99 C6 34          sta     CDrv_spr_class_last_table,y
  683                     
  684  01:C50A  A5 19             lda     <.chr4
  685  01:C50C  9D 00 34          sta     CH_spr_prev,x
  686                     
  687  01:C50F  22                sax
  688  01:C510  9D 80 33          sta     CH_spr_next,x
  689                     
  690  01:C513  A5 18             lda     <.chr3
  691  01:C515  99 B9 34          sta     CDrv_spr_class_table,y
  692                     
  693  01:C518  AA                tax
  694  01:C519  9E 00 34          stz     CH_spr_prev,x
  695                     
  696  01:C51C  7A                ply
  697  01:C51D  4C 96 C4          jmp     .endswap
  698                     
  699                                             ; ÂÖ•„ÇåÊõø„Åà„Ç≠„É£„É©„ÅåÊúÄÂæå„ÅÆÂ†¥Âêà
  700  01:C520            .swap3:
  701  01:C520  BD 00 34          lda     CH_spr_prev,x
  702  01:C523  85 17             sta     <.chr2
  703  01:C525  BD 00 33          lda     CH_spr_class,x
  704  01:C528  A8                tay
  705  01:C529  B9 B9 34          lda     CDrv_spr_class_table,y
  706  01:C52C  85 16             sta     <.chr1
  707                     
  708  01:C52E  9D 80 33          sta     CH_spr_next,x
  709  01:C531  9E 00 34          stz     CH_spr_prev,x
  710                     
  711  01:C534  8A                txa
  712  01:C535  99 B9 34          sta     CDrv_spr_class_table,y
  713                     
  714  01:C538  A6 16             ldx     <.chr1
  715  01:C53A  9D 00 34          sta     CH_spr_prev,x
  716                     
  717  01:C53D  22                sax
  718  01:C53E  9D 80 33          sta     CH_spr_next,x
  719                     
  720  01:C541  A5 17             lda     <.chr2
  721  01:C543  99 C6 34          sta     CDrv_spr_class_last_table,y
  722                     
  723  01:C546  AA                tax
  724  01:C547  9E 80 33          stz     CH_spr_next,x
  725                     
  726  01:C54A  7A                ply
  727  01:C54B  4C 96 C4          jmp     .endswap
  728                     
  729                     
  730                     ;
  731                     ;
  732                     ;
  733                     
  734                     
  735  01:C54E            CDRVallocSprite:
  736           2011      .totalreduce         .equ    z_tmp0
  737           2012      .classreduce    .equ    z_tmp1
  738  01:C54E  AD ED 34          lda     CDrv_chrnum
  739  01:C551  38                sec
  740  01:C552  E9 3C             sbc     #CDRV_MAX_SPRITE             ;@todo ÊÆã„Çä„Çπ„Éó„É©„Ç§„ÉàÊï∞
  741  01:C554  90 40             bcc     .allok          ;ÂÖ®„Ç≠„É£„É©Ââ≤„ÇäÂΩì„Å¶ÂèØËÉΩ
  742  01:C556  85 11             sta     <.totalreduce
  743                     
  744  01:C558  C2                cly                     ; y = alloc class table index
  745  01:C559            .loop1:
  746  01:C559  BE 3A C2          ldx     CDrv_spr_class_alloc_prty,y     ;x=spr class
  747  01:C55C  F0 44             beq     .end
  748                     
  749  01:C55E  BD D3 34          lda     CDrv_spr_class_chrnum,x
  750  01:C561  38                sec
  751  01:C562  FD 47 C2          sbc     CDrv_alloc_min,x
  752  01:C565  90 26             bcc     .02
  753                     
  754  01:C567  C5 11             cmp     <.totalreduce
  755  01:C569  90 0F             bcc     .00
  756  01:C56B  F0 0D             beq     .00
  757                                     ;ÂâäÊ∏õÂèØËÉΩÊï∞>ÂâäÊ∏õÊï∞
  758  01:C56D  BD D3 34          lda     CDrv_spr_class_chrnum,x
  759  01:C570  38                sec
  760  01:C571  E5 11             sbc     <.totalreduce
  761  01:C573  9D E0 34          sta     CDrv_spr_class_allocnum,x
  762  01:C576  64 11             stz     <.totalreduce
  763  01:C578  80 19             bra     .next
  764                                     ;ÂâäÊ∏õÂèØËÉΩÊï∞=<ÂâäÊ∏õÊï∞
  765  01:C57A            .00:
  766                                                     ; a=ÂâäÊ∏õÂèØËÉΩÊï∞
  767  01:C57A  49 FF             eor     #$ff
  768  01:C57C  1A                inc     a
  769  01:C57D  48                pha
  770  01:C57E  18                clc
  771  01:C57F  7D D3 34          adc     CDrv_spr_class_chrnum,x
  772  01:C582  9D E0 34          sta     CDrv_spr_class_allocnum,x
  773                     
  774  01:C585  68                pla                     ; a=-ÂâäÊ∏õÂèØËÉΩÊï∞
  775  01:C586  18                clc
  776  01:C587  65 11             adc     <.totalreduce
  777  01:C589  85 11             sta     <.totalreduce
  778  01:C58B  80 06             bra     .next
  779                     
  780                                     ;ÂâäÊ∏õÂèØËÉΩÊï∞<0
  781  01:C58D            .02:
  782  01:C58D  BD D3 34          lda     CDrv_spr_class_chrnum,x
  783  01:C590  9D E0 34          sta     CDrv_spr_class_allocnum,x
  784                     
  785  01:C593            .next:
  786  01:C593  C8                iny
  787  01:C594  80 C3             bra     .loop1
  788                     
  789                                     ;ÂÖ®„Ç≠„É£„É©Ââ≤„ÇäÂΩì„Å¶ÂèØËÉΩ
  790  01:C596            .allok:
  791  01:C596  C2                cly
  792  01:C597            .loop2:
  793  01:C597  B9 D3 34          lda     CDrv_spr_class_chrnum,y
  794  01:C59A  99 E0 34          sta     CDrv_spr_class_allocnum,y
  795  01:C59D  C8                iny
  796  01:C59E  C0 0D             cpy     #CDRV_MAX_SPR_CLASS
  797  01:C5A0  D0 F5             bne     .loop2
  798  01:C5A2            .end:
  799  01:C5A2  60                rts
#[1]   same.asm
#[2]   player.asm
   11                             .include "player.asm"
    1                     
    2           34F0              .bss
    3                     ;PL_x:   .ds     2
    4                     ;PL_y:   .ds     2
    5                     
    6                     
    7  --:34F0            PL_chr: .ds     1       ;„Éó„É¨„Ç§„É§„Éº„ÅÆ„Ç≠„É£„É©Áï™Âè∑
    8                     
    9           2028              .zp
   10  --:2028            PL_speed:       .ds     2       ; speed
   11                     
   12  --:202A            z_pl_arm:       .ds     1       ; Ê≠¶Âô®
   13                     
   14           C5A3              .code
   15           0001              .bank   MAIN_BANK
   16  01:C5A3            PL_init:
   17  01:C5A3  A9 01             lda     #CDRV_ROLE_PLAYER
   18  01:C5A5  85 11             sta     <z_tmp0
   19  01:C5A7  A9 02             lda     #CDRV_SPR_PLAYER
   20  01:C5A9  85 12             sta     <z_tmp1
   21  01:C5AB  64 13             stz     <z_tmp2
   22  01:C5AD  20 AE C2          jsr     CDRVaddChr
   23  01:C5B0  8C F0 34          sty     PL_chr
   24                     
   25  01:C5B3  02                sxy
   26  01:C5B4  9E 00 24          stz     CH_xl,x
   27  01:C5B7  A9 40             lda     #$40
   28  01:C5B9  9D 80 24          sta     CH_xh,x
   29  01:C5BC  9E 00 25          stz     CH_yl,x
   30  01:C5BF  A9 60             lda     #$60
   31  01:C5C1  9D 80 25          sta     CH_yh,x
   32                     
   33  01:C5C4  A9 08             lda     #LOW(((spr_pattern_pl-spr_pattern)/2+$4000)/32)
   34  01:C5C6  9D 00 2A          sta     CH_sprpatl,x
   35  01:C5C9  A9 02             lda     #HIGH(((spr_pattern_pl-spr_pattern)/2+$4000)/32)
   36  01:C5CB  9D 80 2A          sta     CH_sprpath,x
   37                     
   38  01:C5CE  A9 80             lda     #$80
   39  01:C5D0  9D 00 2B          sta     CH_spratrl,x
   40  01:C5D3  A9 11             lda     #$11
   41  01:C5D5  9D 80 2B          sta     CH_spratrh,x
   42                     
   43  01:C5D8  A9 08             lda     #16/2
   44  01:C5DA  9D 00 2C          sta     CH_sprdx,x
   45  01:C5DD  9D 80 2C          sta     CH_sprdy,x
   46                     
   47  01:C5E0  A9 F9             lda     #LOW(PL_move)
   48  01:C5E2  9D 00 29          sta     CH_procptrl,x
   49  01:C5E5  A9 C5             lda     #HIGH(PL_move)
   50  01:C5E7  9D 80 29          sta     CH_procptrh,x
   51                     
   52  01:C5EA  A9 00             lda     #$00
   53  01:C5EC  8D 28 20          sta     PL_speed
   54  01:C5EF  A9 01             lda     #$01
   55  01:C5F1  8D 29 20          sta     PL_speed+1
   56                     
   57  01:C5F4  A9 01             lda     #1
   58  01:C5F6  85 2A             sta     <z_pl_arm
   59                     
   60  01:C5F8  60                rts
   61                     
   62                     
   63  01:C5F9            PL_move:
   64  01:C5F9  7F 00 1A          bbr7    <z_pad,.notleft
   65  01:C5FC            .left:
   66  01:C5FC  BD 00 24          lda     CH_xl,x
   67  01:C5FF  38                sec
   68                     ;        sbc     #$80
   69  01:C600  E5 28             sbc     <PL_speed
   70  01:C602  9D 00 24          sta     CH_xl,x
   71  01:C605  BD 80 24          lda     CH_xh,x
   72                     ;        sbc     #0
   73  01:C608  E5 29             sbc     <PL_speed+1
   74  01:C60A  C9 18             cmp     #(32+16)/2
   75  01:C60C  B0 05             bcs     .leftok
   76  01:C60E  9E 00 24          stz     CH_xl,x
   77  01:C611  A9 18             lda     #(32+16)/2
   78  01:C613            .leftok:
   79  01:C613  9D 80 24          sta     CH_xh,x
   80                     
   81  01:C616            .notleft:
   82  01:C616  5F 00 1A          bbr5    <z_pad,.notright
   83  01:C619            .right:
   84  01:C619  BD 00 24          lda     CH_xl,x
   85  01:C61C  18                clc
   86                     ;        adc     #$80
   87  01:C61D  65 28             adc     <PL_speed
   88  01:C61F  9D 00 24          sta     CH_xl,x
   89  01:C622  BD 80 24          lda     CH_xh,x
   90                     ;        adc     #0
   91  01:C625  65 29             adc     <PL_speed+1
   92  01:C627  C9 A8             cmp     #(320+32-16)/2
   93  01:C629  90 05             bcc     .rightok
   94  01:C62B  9E 00 24          stz     CH_xl,x
   95  01:C62E  A9 A8             lda     #(320+32-16)/2
   96  01:C630            .rightok:
   97  01:C630  9D 80 24          sta     CH_xh,x
   98                     
   99  01:C633            .notright:
  100  01:C633  4F 00 1A          bbr4    <z_pad,.notup
  101  01:C636            .up:
  102  01:C636  BD 00 25          lda     CH_yl,x
  103  01:C639  38                sec
  104                     ;        sbc     #$80
  105  01:C63A  E5 28             sbc     <PL_speed
  106  01:C63C  9D 00 25          sta     CH_yl,x
  107  01:C63F  BD 80 25          lda     CH_yh,x
  108                     ;        sbc     #0
  109  01:C642  E5 29             sbc     <PL_speed+1
  110  01:C644  C9 28             cmp     #(64+16)/2
  111  01:C646  B0 05             bcs     .upok
  112  01:C648  9E 00 25          stz     CH_yl,x
  113  01:C64B  A9 28             lda     #(64+16)/2
  114  01:C64D            .upok:
  115  01:C64D  9D 80 25          sta     CH_yh,x
  116                     
  117  01:C650            .notup:
  118  01:C650  6F 00 1A          bbr6    <z_pad,.notdown
  119  01:C653            .down:
  120  01:C653  BD 00 25          lda     CH_yl,x
  121  01:C656  18                clc
  122                     ;        adc     #$80
  123  01:C657  65 28             adc     <PL_speed
  124  01:C659  9D 00 25          sta     CH_yl,x
  125  01:C65C  BD 80 25          lda     CH_yh,x
  126                     ;        adc     #0
  127  01:C65F  65 29             adc     <PL_speed+1
  128  01:C661  C9 90             cmp     #(240+64-16)/2
  129  01:C663  90 05             bcc     .downok
  130  01:C665  9E 00 25          stz     CH_yl,x
  131  01:C668  A9 90             lda     #(240+64-16)/2
  132  01:C66A            .downok:
  133  01:C66A  9D 80 25          sta     CH_yh,x
  134  01:C66D            .notdown:
  135                     
  136  01:C66D  A5 2A             lda     <z_pl_arm
  137  01:C66F  F0 05             beq     .arm_wide
  138  01:C671  3A                dec     a
  139  01:C672  F0 0C             beq     .arm_fire
  140  01:C674            .arm_beam:
  141  01:C674  80 15             bra     .notshoot
  142                     
  143  01:C676            .arm_wide:
  144                                     ; shoot
  145  01:C676  0F 01 12          bbr0    <z_paddelta,.notshoot
  146                     
  147  01:C679  A0 03             ldy     #3
  148  01:C67B  20 AD C7          jsr     PBshoot
  149  01:C67E  80 0B             bra     .notshoot
  150                     
  151  01:C680            .arm_fire:
  152  01:C680  0F 00 05          bbr0    <z_pad,.arm_fire_notshoot
  153  01:C683  20 90 C8          jsr     PB_fire_shoot
  154  01:C686  80 03             bra     .notshoot
  155  01:C688            .arm_fire_notshoot:
  156  01:C688  20 85 C8          jsr     PB_fire_noshoot
  157                     
  158  01:C68B            .notshoot:
  159                     
  160                                     ; Â∑¶Âè≥„Çπ„ÇØ„É≠„Éº„É´
  161  01:C68B  BD 80 25          lda     CH_yh,x
  162  01:C68E  38                sec
  163  01:C68F  E9 28             sbc     #(64+16)/2
  164  01:C691  A8                tay
  165  01:C692  B9 B3 C6          lda     PLScrollY,y
  166  01:C695  8D 09 20          sta     scry
  167  01:C698  9C 0A 20          stz     scry+1
  168                     
  169                                     ; „Çπ„ÇØ„É≠„Éº„É´„ÅÆÂ∑ÆÂàÜ„Åã„ÇâÂú∞‰∏äÊïµ„ÅÆÂ∫ßÊ®ôË£úÊ≠£ÂÄ§„ÇíÊ±Ç„ÇÅ„Çã
  170                                     ; Â∑ÆÂàÜ„Çí1/2„Åó„Å¶„Ç≤„Éº„É†Â∫ßÊ®ô„Å´Â§âÊèõ„Åô„Çã
  171  01:C69B  AD 0D 20          lda     prevscry
  172  01:C69E  38                sec
  173  01:C69F  ED 09 20          sbc     scry
  174  01:C6A2  90 03             bcc     .scrminus
  175  01:C6A4  18                clc
  176  01:C6A5  80 01             bra     .scradd
  177  01:C6A7            .scrminus:
  178  01:C6A7  38                sec
  179  01:C6A8            .scradd:
  180  01:C6A8  6A                ror     a
  181  01:C6A9  85 10             sta     <z_d_scryh
  182  01:C6AB  62                cla
  183  01:C6AC  6A                ror     a
  184  01:C6AD  85 0F             sta     <z_d_scryl
  185                     
  186                     
  187                     
  188  01:C6AF  18                clc
  189  01:C6B0  60                rts
  190                     
  191  01:C6B1            PLdead:
  192  01:C6B1  18                clc
  193  01:C6B2  60                rts
  194                     
  195                                     ;Ëá™Ê©ü„ÅÆÂ∑¶Âè≥„ÅÆÂãï„Åç„Å´Âêà„Çè„Åõ„Åü„Çπ„ÇØ„É≠„Éº„É´‰ΩçÁΩÆ
  196  01:C6B3            PLScrollY:
  197  01:C6B3  00                .db 0
  198  01:C6B4  00                .db 0
  199  01:C6B5  01                .db 1
  200  01:C6B6  02                .db 2
  201  01:C6B7  03                .db 3
  202  01:C6B8  03                .db 3
  203  01:C6B9  04                .db 4
  204  01:C6BA  05                .db 5
  205  01:C6BB  06                .db 6
  206  01:C6BC  06                .db 6
  207  01:C6BD  07                .db 7
  208  01:C6BE  08                .db 8
  209  01:C6BF  09                .db 9
  210  01:C6C0  0A                .db 10
  211  01:C6C1  0A                .db 10
  212  01:C6C2  0B                .db 11
  213  01:C6C3  0C                .db 12
  214  01:C6C4  0D                .db 13
  215  01:C6C5  0D                .db 13
  216  01:C6C6  0E                .db 14
  217  01:C6C7  0F                .db 15
  218  01:C6C8  10                .db 16
  219  01:C6C9  10                .db 16
  220  01:C6CA  11                .db 17
  221  01:C6CB  12                .db 18
  222  01:C6CC  13                .db 19
  223  01:C6CD  14                .db 20
  224  01:C6CE  14                .db 20
  225  01:C6CF  15                .db 21
  226  01:C6D0  16                .db 22
  227  01:C6D1  17                .db 23
  228  01:C6D2  17                .db 23
  229  01:C6D3  18                .db 24
  230  01:C6D4  19                .db 25
  231  01:C6D5  1A                .db 26
  232  01:C6D6  1A                .db 26
  233  01:C6D7  1B                .db 27
  234  01:C6D8  1C                .db 28
  235  01:C6D9  1D                .db 29
  236  01:C6DA  1E                .db 30
  237  01:C6DB  1E                .db 30
  238  01:C6DC  1F                .db 31
  239  01:C6DD  20                .db 32
  240  01:C6DE  21                .db 33
  241  01:C6DF  21                .db 33
  242  01:C6E0  22                .db 34
  243  01:C6E1  23                .db 35
  244  01:C6E2  24                .db 36
  245  01:C6E3  24                .db 36
  246  01:C6E4  25                .db 37
  247  01:C6E5  26                .db 38
  248  01:C6E6  27                .db 39
  249  01:C6E7  28                .db 40
  250  01:C6E8  28                .db 40
  251  01:C6E9  29                .db 41
  252  01:C6EA  2A                .db 42
  253  01:C6EB  2B                .db 43
  254  01:C6EC  2B                .db 43
  255  01:C6ED  2C                .db 44
  256  01:C6EE  2D                .db 45
  257  01:C6EF  2E                .db 46
  258  01:C6F0  2E                .db 46
  259  01:C6F1  2F                .db 47
  260  01:C6F2  30                .db 48
  261  01:C6F3  31                .db 49
  262  01:C6F4  32                .db 50
  263  01:C6F5  32                .db 50
  264  01:C6F6  33                .db 51
  265  01:C6F7  34                .db 52
  266  01:C6F8  35                .db 53
  267  01:C6F9  35                .db 53
  268  01:C6FA  36                .db 54
  269  01:C6FB  37                .db 55
  270  01:C6FC  38                .db 56
  271  01:C6FD  38                .db 56
  272  01:C6FE  39                .db 57
  273  01:C6FF  3A                .db 58
  274  01:C700  3B                .db 59
  275  01:C701  3C                .db 60
  276  01:C702  3C                .db 60
  277  01:C703  3D                .db 61
  278  01:C704  3E                .db 62
  279  01:C705  3F                .db 63
  280  01:C706  3F                .db 63
  281  01:C707  40                .db 64
  282  01:C708  41                .db 65
  283  01:C709  42                .db 66
  284  01:C70A  42                .db 66
  285  01:C70B  43                .db 67
  286  01:C70C  44                .db 68
  287  01:C70D  45                .db 69
  288  01:C70E  46                .db 70
  289  01:C70F  46                .db 70
  290  01:C710  47                .db 71
  291  01:C711  48                .db 72
  292  01:C712  49                .db 73
  293  01:C713  49                .db 73
  294  01:C714  4A                .db 74
  295  01:C715  4B                .db 75
  296  01:C716  4C                .db 76
  297  01:C717  4C                .db 76
  298  01:C718  4D                .db 77
  299  01:C719  4E                .db 78
  300  01:C71A  4F                .db 79
  301  01:C71B  50                .db 80
#[1]   same.asm
#[2]   pbullet.asm
   12                             .include "pbullet.asm"
    1                     ; Ëá™Ê©üÂºæÂá¶ÁêÜ„ÄÄ„ÅÆ„ÉÜ„Çπ„Éà
    2                     ; Âºæ„ÅÆÊßãÈÄ†‰Ωì„Å∏„ÅÆ„Ç¢„ÇØ„Çª„Çπ„Çí absolute,x „Åß„ÇÑ„Çå„Çã„Çà„ÅÜ„Å´„Åô„Çã„Åü„ÇÅ„Å´„ÄÅ
    3                     ; ÊßãÈÄ†‰Ωì„É°„É≥„Éê„Éº„Çí1„Éê„Ç§„Éà„Åö„Å§„Å´ÂàÜ„Åë„ÄÅ„Åù„Çå„Åû„Çå„ÇíÂÄãÂà•„ÅÆÈÖçÂàó„Å®„Å™„Çã„Çà„ÅÜÈÖçÁΩÆ„ÄÇ
    4                     ; x „ÅØÂºæ„ÅÆ„Ç§„É≥„Éá„ÉÉ„ÇØ„Çπ„Å®„Å™„Çã
    5                     ;
    6                     ; ÔºîÈÄ£Â∞Ñ„Åß„ÅÇ„Çã„Åì„Å®„ÇíÂâçÊèê„Å®„Åó„Åü„Ç≥„Éº„Éâ„Å´„Å™„Å£„Å¶„ÅÑ„Çã
    7                     
    8                         
    9           C71C          .code
   10           0001          .bank   MAIN_BANK
   11                     
   12                             ; number of bullet per 1 shot
   13                     ;PB_level_num:
   14                     ;    .db 3,5,9,15
   15                             ; direction table for each level
   16  01:C71C            PB_level_table:
   17  01:C71C  00 04 0A      .db 0,PB_level1-PB_level0,PB_level2-PB_level0,PB_level3-PB_level0
       01:C71F  14        
   18  01:C720            PB_level0:
   19  01:C720  00 07 0E      .db 0,7,14,$ff
       01:C723  FF        
   20  01:C724            PB_level1:
   21  01:C724  00 03 07      .db 0,3,7,11,14,$ff
       01:C727  0B 0E FF  
   22  01:C72A            PB_level2:
   23  01:C72A  00 01 02      .db 0,1,2,6,7,8,12,13,14,$ff
       01:C72D  06 07 08  
       01:C730  0C 0D 0E  
       01:C733  FF        
   24  01:C734            PB_level3:
   25  01:C734  00 01 02      .db 0,1,2,3,4,5,6,7,8,9,10,11,12,13,14,$ff
       01:C737  03 04 05  
       01:C73A  06 07 08  
       01:C73D  09 0A 0B  
       01:C740  0C 0D 0E  
       01:C743  FF        
   26                     
   27                             ; ÊñπÂêëÂà•ÁßªÂãïÈáè
   28  01:C744            PB_dxl_table:
   29  01:C744  F8 3C 76      .db $f8,$3c,$76,$a7,$cd,$e9,$fa,$00,$fa,$e9,$cd,$a7,$76,$3c,$f8
       01:C747  A7 CD E9  
       01:C74A  FA 00 FA  
       01:C74D  E9 CD A7  
       01:C750  76 3C F8  
   30  01:C753            PB_dxh_table:
   31  01:C753  02 03 03      .db $02,$03,$03,$03,$03,$03,$03,$04,$03,$03,$03,$03,$03,$03,$02
       01:C756  03 03 03  
       01:C759  03 04 03  
       01:C75C  03 03 03  
       01:C75F  03 03 02  
   32  01:C762            PB_dyl_table:
   33  01:C762  53 A7 01      .db $53,$a7,$01,$60,$c4,$2c,$95,$00,$6b,$d4,$3c,$a0,$ff,$59,$ad
       01:C765  60 C4 2C  
       01:C768  95 00 6B  
       01:C76B  D4 3C A0  
       01:C76E  FF 59 AD  
   34  01:C771            PB_dyh_table:
   35  01:C771  FD FD FE      .db $fd,$fd,$fe,$fe,$fe,$ff,$ff,$00,$00,$00,$01,$01,$01,$02,$02
       01:C774  FE FE FF  
       01:C777  FF 00 00  
       01:C77A  00 01 01  
       01:C77D  01 02 02  
   36                     
   37                             ; ÊñπÂêëÂà•„Çπ„Éó„É©„Ç§„Éà„Éë„Çø„Éº„É≥
   38  01:C780            PB_sprpatl_table:
   39  01:C780  06            .db LOW(((spr_pattern_pb2-spr_pattern)/2+$4000)/32)
   40  01:C781  06            .db LOW(((spr_pattern_pb2-spr_pattern)/2+$4000)/32)
   41  01:C782  06            .db LOW(((spr_pattern_pb2-spr_pattern)/2+$4000)/32)
   42  01:C783  06            .db LOW(((spr_pattern_pb2-spr_pattern)/2+$4000)/32)
   43  01:C784  04            .db LOW(((spr_pattern_pb-spr_pattern)/2+$4000)/32)
   44  01:C785  04            .db LOW(((spr_pattern_pb-spr_pattern)/2+$4000)/32)
   45  01:C786  04            .db LOW(((spr_pattern_pb-spr_pattern)/2+$4000)/32)
   46  01:C787  04            .db LOW(((spr_pattern_pb-spr_pattern)/2+$4000)/32)
   47  01:C788  04            .db LOW(((spr_pattern_pb-spr_pattern)/2+$4000)/32)
   48  01:C789  04            .db LOW(((spr_pattern_pb-spr_pattern)/2+$4000)/32)
   49  01:C78A  04            .db LOW(((spr_pattern_pb-spr_pattern)/2+$4000)/32)
   50  01:C78B  06            .db LOW(((spr_pattern_pb2-spr_pattern)/2+$4000)/32)
   51  01:C78C  06            .db LOW(((spr_pattern_pb2-spr_pattern)/2+$4000)/32)
   52  01:C78D  06            .db LOW(((spr_pattern_pb2-spr_pattern)/2+$4000)/32)
   53  01:C78E  06            .db LOW(((spr_pattern_pb2-spr_pattern)/2+$4000)/32)
   54                     
   55  01:C78F            PB_sprpath_table:
   56  01:C78F  02            .db HIGH(((spr_pattern_pb2-spr_pattern)/2+$4000)/32)
   57  01:C790  02            .db HIGH(((spr_pattern_pb2-spr_pattern)/2+$4000)/32)
   58  01:C791  02            .db HIGH(((spr_pattern_pb2-spr_pattern)/2+$4000)/32)
   59  01:C792  02            .db HIGH(((spr_pattern_pb2-spr_pattern)/2+$4000)/32)
   60  01:C793  02            .db HIGH(((spr_pattern_pb-spr_pattern)/2+$4000)/32)
   61  01:C794  02            .db HIGH(((spr_pattern_pb-spr_pattern)/2+$4000)/32)
   62  01:C795  02            .db HIGH(((spr_pattern_pb-spr_pattern)/2+$4000)/32)
   63  01:C796  02            .db HIGH(((spr_pattern_pb-spr_pattern)/2+$4000)/32)
   64  01:C797  02            .db HIGH(((spr_pattern_pb-spr_pattern)/2+$4000)/32)
   65  01:C798  02            .db HIGH(((spr_pattern_pb-spr_pattern)/2+$4000)/32)
   66  01:C799  02            .db HIGH(((spr_pattern_pb-spr_pattern)/2+$4000)/32)
   67  01:C79A  02            .db HIGH(((spr_pattern_pb2-spr_pattern)/2+$4000)/32)
   68  01:C79B  02            .db HIGH(((spr_pattern_pb2-spr_pattern)/2+$4000)/32)
   69  01:C79C  02            .db HIGH(((spr_pattern_pb2-spr_pattern)/2+$4000)/32)
   70  01:C79D  02            .db HIGH(((spr_pattern_pb2-spr_pattern)/2+$4000)/32)
   71                     
   72                                 ; ÊñπÂêëÂà•„Çπ„Éó„É©„Ç§„Éà„Ç¢„Éà„É™„Éì„É•„Éº„ÉàÔºà„Éï„É™„ÉÉ„ÉóÁî®Ôºâ
   73  01:C79E            PB_spratrh_table:
   74  01:C79E  00 00 00      .db $00,$00,$00,$00,$00,$00,$00,$00,$00,$00,$00,$90,$90,$90,$90
       01:C7A1  00 00 00  
       01:C7A4  00 00 00  
       01:C7A7  00 00 90  
       01:C7AA  90 90 90  
   75                     
   76  01:C7AD            PBshoot:
   77  01:C7AD  DA                phx
   78  01:C7AE  A2 02             ldx     #CDRV_ROLE_PBULLET_M1
   79  01:C7B0            .loop:
   80  01:C7B0  BD 93 34          lda     CDrv_role_class_chrnum,x
   81  01:C7B3  F0 07             beq     .shoot
   82  01:C7B5  E8                inx
   83  01:C7B6  E0 06             cpx     #CDRV_ROLE_PBULLET_M1+4
   84  01:C7B8  D0 F6             bne     .loop
   85  01:C7BA            .end:
   86  01:C7BA  FA                plx
   87  01:C7BB  60                rts
   88                     
   89  01:C7BC            .shoot:
   90  01:C7BC  86 11             stx     <z_tmp0     ; role class
   91  01:C7BE  A9 07             lda     #CDRV_SPR_PBULLET_M1
   92  01:C7C0  85 12             sta     <z_tmp1     ; sprite class
   93  01:C7C2  64 13             stz     <z_tmp2
   94                     
   95  01:C7C4  AE F0 34          ldx     PL_chr
   96  01:C7C7  BD 00 24          lda     CH_xl,x
   97  01:C7CA  85 14             sta     <z_tmp3
   98  01:C7CC  BD 80 24          lda     CH_xh,x
   99  01:C7CF  85 15             sta     <z_tmp4
  100  01:C7D1  BD 00 25          lda     CH_yl,x
  101  01:C7D4  85 16             sta     <z_tmp5
  102  01:C7D6  BD 80 25          lda     CH_yh,x
  103  01:C7D9  85 17             sta     <z_tmp6
  104                     
  105  01:C7DB  B9 1C C7          lda     PB_level_table,y
  106  01:C7DE  A8                tay
  107  01:C7DF            .loop2:
  108  01:C7DF  B9 20 C7          lda     PB_level0,y
  109  01:C7E2  30 D6             bmi     .end
  110                     
  111  01:C7E4  5A                phy
  112                     
  113  01:C7E5  48                pha
  114  01:C7E6  20 AE C2          jsr     CDRVaddChr
  115  01:C7E9  FA                plx
  116  01:C7EA  B0 59             bcs     .end2
  117                     
  118  01:C7EC  BD 44 C7          lda     PB_dxl_table,x
  119  01:C7EF  99 00 26          sta     CH_dxl,y
  120  01:C7F2  BD 53 C7          lda     PB_dxh_table,x
  121  01:C7F5  99 80 26          sta     CH_dxh,y
  122  01:C7F8  BD 62 C7          lda     PB_dyl_table,x
  123  01:C7FB  99 00 27          sta     CH_dyl,y
  124  01:C7FE  BD 71 C7          lda     PB_dyh_table,x
  125  01:C801  99 80 27          sta     CH_dyh,y
  126                     
  127  01:C804  A5 14             lda     <z_tmp3
  128  01:C806  99 00 24          sta     CH_xl,y
  129  01:C809  A5 15             lda     <z_tmp4
  130  01:C80B  99 80 24          sta     CH_xh,y
  131  01:C80E  A5 16             lda     <z_tmp5
  132  01:C810  99 00 25          sta     CH_yl,y
  133  01:C813  A5 17             lda     <z_tmp6
  134  01:C815  99 80 25          sta     CH_yh,y
  135                     
  136  01:C818  BD 80 C7          lda     PB_sprpatl_table,x
  137                     ;        lda     #LOW(((spr_pattern_pb-spr_pattern)/2+$4000)/32)
  138  01:C81B  99 00 2A          sta     CH_sprpatl,y
  139  01:C81E  BD 8F C7          lda     PB_sprpath_table,x
  140                     ;        lda     #HIGH(((spr_pattern_pb-spr_pattern)/2+$4000)/32)
  141  01:C821  99 80 2A          sta     CH_sprpath,y
  142                     
  143  01:C824  A9 81             lda     #$81
  144  01:C826  99 00 2B          sta     CH_spratrl,y
  145  01:C829  BD 9E C7          lda     PB_spratrh_table,x
  146                     ;        lda     #$00
  147  01:C82C  99 80 2B          sta     CH_spratrh,y
  148                     
  149  01:C82F  A9 02             lda     #4/2
  150  01:C831  99 00 2C          sta     CH_sprdx,y
  151  01:C834  99 80 2C          sta     CH_sprdy,y
  152                     
  153  01:C837  A9 48             lda     #LOW(PBmove)
  154  01:C839  99 00 29          sta     CH_procptrl,y
  155  01:C83C  A9 C8             lda     #HIGH(PBmove)
  156  01:C83E  99 80 29          sta     CH_procptrh,y
  157                     
  158  01:C841  7A                ply
  159  01:C842  C8                iny
  160  01:C843  80 9A             bra     .loop2
  161                     
  162  01:C845            .end2:
  163  01:C845  7A                ply
  164  01:C846  FA                plx
  165  01:C847  60                rts
  166                     ;
  167                     ;
  168                     ;
  169  01:C848            PBmove:
  170  01:C848  BD 00 24          lda     CH_xl,x
  171  01:C84B  18                clc
  172  01:C84C  7D 00 26          adc     CH_dxl,x
  173  01:C84F  9D 00 24          sta     CH_xl,x
  174  01:C852  BD 80 24          lda     CH_xh,x
  175  01:C855  7D 80 26          adc     CH_dxh,x
  176  01:C858  9D 80 24          sta     CH_xh,x
  177                     
  178  01:C85B  C9 B8             cmp     #(336+32)/2
  179  01:C85D  B0 21             bcs     .out
  180  01:C85F  C9 10             cmp     #32/2
  181  01:C861  90 1D             bcc     .out
  182                     
  183  01:C863  BD 00 25          lda     CH_yl,x
  184  01:C866  18                clc
  185  01:C867  7D 00 27          adc     CH_dyl,x
  186  01:C86A  9D 00 25          sta     CH_yl,x
  187  01:C86D  BD 80 25          lda     CH_yh,x
  188  01:C870  7D 80 27          adc     CH_dyh,x
  189  01:C873  9D 80 25          sta     CH_yh,x
  190                     
  191  01:C876  C9 98             cmp     #(240+64)/2
  192  01:C878  B0 06             bcs     .out
  193  01:C87A  C9 20             cmp     #64/2
  194  01:C87C  90 02             bcc     .out
  195                     
  196  01:C87E  18                clc
  197  01:C87F  60                rts
  198                                     ; out of screen
  199  01:C880            .out:
  200  01:C880  38                sec
  201  01:C881  60                rts
  202                     
  203                     ;-----------------
  204                     ; fire
  205           202B              .zp
  206  --:202B            z_fire_count    .ds     1       ;„Éï„Ç°„Ç§„Ç¢„Éº„ÅÆ‰º∏„Å≥
  207                     
  208           C882          .code
  209           0001          .bank   MAIN_BANK
  210                     
  211  01:C882            PB_fire_init:
  212  01:C882  64 2B             stz     <z_fire_count
  213  01:C884  60                rts
  214                     
  215  01:C885            PB_fire_noshoot:
  216  01:C885  A5 2B             lda     <z_fire_count
  217  01:C887  C9 01             cmp     #1
  218  01:C889  D0 01             bne     .down
  219  01:C88B  60                rts
  220  01:C88C            .down:
  221  01:C88C  3A                dec     a
  222  01:C88D  85 2B             sta     <z_fire_count
  223  01:C88F  60                rts
  224                     
  225                     
  226  01:C890            PB_fire_shoot:
  227  01:C890  A5 2B             lda     <z_fire_count
  228  01:C892  F0 08             beq     .create
  229                     
  230  01:C894  C9 0A             cmp     #10
  231  01:C896  F0 03             beq     .ret
  232  01:C898  1A                inc     a
  233  01:C899  85 2B             sta     <z_fire_count
  234  01:C89B            .ret:
  235  01:C89B  60                rts
  236                     
  237  01:C89C            .create:
  238  01:C89C  A0 02             ldy     #CDRV_ROLE_PBULLET_M1
  239  01:C89E  B9 93 34          lda     CDrv_role_class_chrnum,y
  240  01:C8A1  D0 F8             bne     .ret
  241  01:C8A3  C8                iny
  242  01:C8A4  B9 93 34          lda     CDrv_role_class_chrnum,y
  243  01:C8A7  D0 F2             bne     .ret
  244  01:C8A9  C8                iny
  245  01:C8AA  B9 93 34          lda     CDrv_role_class_chrnum,y
  246  01:C8AD  D0 EC             bne     .ret
  247  01:C8AF  C8                iny
  248  01:C8B0  B9 93 34          lda     CDrv_role_class_chrnum,y
  249  01:C8B3  D0 E6             bne     .ret
  250                     
  251                                     ;Ââç
  252  01:C8B5  A9 02             lda     #CDRV_ROLE_PBULLET_M1
  253  01:C8B7  85 1C             sta     <z_tmp11
  254  01:C8B9  A9 10             lda     #16
  255  01:C8BB  85 1D             sta     <z_tmp12
  256  01:C8BD  A9 0E             lda     #14
  257  01:C8BF  85 1E             sta     <z_tmp13
  258  01:C8C1  A9 96             lda     #LOW(PB_fire_0_move)
  259  01:C8C3  85 1F             sta     <z_tmp14
  260  01:C8C5  A9 C9             lda     #HIGH(PB_fire_0_move)
  261  01:C8C7  85 20             sta     <z_tmp15
  262  01:C8C9  20 40 C9          jsr     PB_fire_1_shoot
  263                     
  264                                     ;Ââç
  265  01:C8CC  A9 03             lda     #CDRV_ROLE_PBULLET_M2
  266  01:C8CE  85 1C             sta     <z_tmp11
  267  01:C8D0  A9 10             lda     #16
  268  01:C8D2  85 1D             sta     <z_tmp12
  269  01:C8D4  A9 12             lda     #18
  270  01:C8D6  85 1E             sta     <z_tmp13
  271  01:C8D8  A9 96             lda     #LOW(PB_fire_0_move)
  272  01:C8DA  85 1F             sta     <z_tmp14
  273  01:C8DC  A9 C9             lda     #HIGH(PB_fire_0_move)
  274  01:C8DE  85 20             sta     <z_tmp15
  275  01:C8E0  20 40 C9          jsr     PB_fire_1_shoot
  276                     
  277                                     ;Â∑¶
  278  01:C8E3  A9 04             lda     #CDRV_ROLE_PBULLET_M3
  279  01:C8E5  85 1C             sta     <z_tmp11
  280  01:C8E7  A9 0F             lda     #15
  281  01:C8E9  85 1D             sta     <z_tmp12
  282  01:C8EB  A9 0C             lda     #12
  283  01:C8ED  85 1E             sta     <z_tmp13
  284  01:C8EF  A9 F2             lda     #LOW(PB_fire_1_move)
  285  01:C8F1  85 1F             sta     <z_tmp14
  286  01:C8F3  A9 C9             lda     #HIGH(PB_fire_1_move)
  287  01:C8F5  85 20             sta     <z_tmp15
  288  01:C8F7  20 40 C9          jsr     PB_fire_1_shoot
  289                     
  290                                     ;Âè≥
  291  01:C8FA  A9 05             lda     #CDRV_ROLE_PBULLET_M4
  292  01:C8FC  85 1C             sta     <z_tmp11
  293  01:C8FE  A9 11             lda     #17
  294  01:C900  85 1D             sta     <z_tmp12
  295  01:C902  A9 14             lda     #20
  296  01:C904  85 1E             sta     <z_tmp13
  297  01:C906  A9 96             lda     #LOW(PB_fire_0_move)
  298  01:C908  85 1F             sta     <z_tmp14
  299  01:C90A  A9 C9             lda     #HIGH(PB_fire_0_move)
  300  01:C90C  85 20             sta     <z_tmp15
  301  01:C90E  20 40 C9          jsr     PB_fire_1_shoot
  302                     
  303  01:C911  A9 06             lda     #CDRV_ROLE_PBULLET_M5
  304  01:C913  85 1C             sta     <z_tmp11
  305  01:C915  A9 0D             lda     #13
  306  01:C917  85 1D             sta     <z_tmp12
  307  01:C919  A9 0C             lda     #12
  308  01:C91B  85 1E             sta     <z_tmp13
  309  01:C91D  A9 96             lda     #LOW(PB_fire_0_move)
  310  01:C91F  85 1F             sta     <z_tmp14
  311  01:C921  A9 C9             lda     #HIGH(PB_fire_0_move)
  312  01:C923  85 20             sta     <z_tmp15
  313  01:C925  20 40 C9          jsr     PB_fire_1_shoot
  314                     
  315  01:C928  A9 07             lda     #CDRV_ROLE_PBULLET_M6
  316  01:C92A  85 1C             sta     <z_tmp11
  317  01:C92C  A9 13             lda     #19
  318  01:C92E  85 1D             sta     <z_tmp12
  319  01:C930  A9 14             lda     #20
  320  01:C932  85 1E             sta     <z_tmp13
  321  01:C934  A9 96             lda     #LOW(PB_fire_0_move)
  322  01:C936  85 1F             sta     <z_tmp14
  323  01:C938  A9 C9             lda     #HIGH(PB_fire_0_move)
  324  01:C93A  85 20             sta     <z_tmp15
  325  01:C93C  20 40 C9          jsr     PB_fire_1_shoot
  326                     
  327  01:C93F            .end
  328  01:C93F  60                rts
  329                     
  330                     
  331                     
  332                     
  333  01:C940            PB_fire_1_shoot:
  334           201C      .arg_role_class .equ    z_tmp11
  335           201D      .arg_dir        .equ    z_tmp12
  336           201E      .arg_rootdir    .equ    z_tmp13
  337           201F      .arg_procptrl   .equ    z_tmp14
  338           2020      .arg_procptrh   .equ    z_tmp15
  339                     
  340  01:C940  DA                phx
  341                     
  342  01:C941  A9 01             lda     #1
  343  01:C943  85 2B             sta     <z_fire_count
  344                     
  345  01:C945  A2 09             ldx     #9
  346  01:C947            .shootloop:
  347  01:C947  A5 1C             lda     <.arg_role_class
  348  01:C949  85 11             sta     <z_tmp0     ; role class
  349  01:C94B  A9 07             lda     #CDRV_SPR_PBULLET_M1
  350  01:C94D  85 12             sta     <z_tmp1     ; sprite class
  351  01:C94F  64 13             stz     <z_tmp2         ; parent
  352  01:C951  20 AE C2          jsr     CDRVaddChr
  353  01:C954  B0 3E             bcs     .end
  354                     
  355  01:C956  A9 00             lda     #LOW(((spr_pattern3_fire-spr_pattern3)/2+$6000)/32)
  356  01:C958  99 00 2A          sta     CH_sprpatl,y
  357  01:C95B  A9 03             lda     #HIGH(((spr_pattern3_fire-spr_pattern3)/2+$6000)/32)
  358  01:C95D  99 80 2A          sta     CH_sprpath,y
  359                     
  360  01:C960  A9 84             lda     #$84
  361  01:C962  99 00 2B          sta     CH_spratrl,y
  362  01:C965  A9 11             lda     #$11
  363  01:C967  99 80 2B          sta     CH_spratrh,y
  364                     
  365  01:C96A  A9 08             lda     #16/2
  366  01:C96C  99 00 2C          sta     CH_sprdx,y
  367  01:C96F  99 80 2C          sta     CH_sprdy,y
  368                     
  369  01:C972  A5 1F             lda     <.arg_procptrl
  370  01:C974  99 00 29          sta     CH_procptrl,y
  371  01:C977  A5 20             lda     <.arg_procptrh
  372  01:C979  99 80 29          sta     CH_procptrh,y
  373                     
  374  01:C97C  A5 1D             lda     <.arg_dir
  375  01:C97E  99 00 28          sta     CH_dir,y        ; Èñ¢ÈÄ£„Ç≠„É£„É©„Åã„ÇâË¶ã„ÅüÊñπÂêë
  376  01:C981  99 80 2F          sta     CH_var1,y       ; 1„Å§Ââç„ÅÆÊñπÂêëÔºàÂàùÊúüÂÄ§„ÅØÂêå„ÅòÔºâ
  377                     
  378  01:C984  62                cla
  379  01:C985  99 00 30          sta     CH_var2,y
  380                     
  381  01:C988  8A                txa
  382  01:C989  99 00 2F          sta     CH_var0,y       ; ÈÄö„ÅóÁï™Âè∑ÔºàËá™Ê©ü„Å´Ëøë„ÅÑÊñπ„Åã„Çâ 1,2,3..Ôºâ
  383  01:C98C  CA                dex
  384  01:C98D  D0 B8             bne     .shootloop
  385                     
  386  01:C98F  A5 1E             lda     <.arg_rootdir
  387  01:C991  99 00 28          sta     CH_dir,y
  388  01:C994            .end:
  389  01:C994  FA                plx
  390  01:C995  60                rts
  391                     ;
  392                     ;
  393                     ;
  394  01:C996            PB_fire_0_move:
  395  01:C996  BD 00 2F          lda     CH_var0,x
  396  01:C999  C5 2B             cmp     <z_fire_count
  397  01:C99B  B0 4C             bcs     .hide
  398                     
  399  01:C99D  BC 00 28          ldy     CH_dir,x
  400  01:C9A0  B9 93 CA          lda     PB_fire_dxl_table,y
  401  01:C9A3  9D 00 24          sta     CH_xl,x
  402  01:C9A6  B9 B3 CA          lda     PB_fire_dxh_table,y
  403  01:C9A9  9D 80 24          sta     CH_xh,x
  404  01:C9AC  B9 D3 CA          lda     PB_fire_dyl_table,y
  405  01:C9AF  9D 00 25          sta     CH_yl,x
  406  01:C9B2  B9 F3 CA          lda     PB_fire_dyh_table,y
  407  01:C9B5  9D 80 25          sta     CH_yh,x
  408                     
  409  01:C9B8  BD 80 32          lda     CH_role_prev,x
  410  01:C9BB  D0 03             bne     .setpos
  411  01:C9BD  AD F0 34          lda     PL_chr
  412  01:C9C0            .setpos:
  413  01:C9C0  A8                tay
  414                     
  415  01:C9C1  B9 00 24          lda     CH_xl,y
  416  01:C9C4  18                clc
  417  01:C9C5  7D 00 24          adc     CH_xl,x
  418  01:C9C8  9D 00 24          sta     CH_xl,x
  419  01:C9CB  B9 80 24          lda     CH_xh,y
  420  01:C9CE  7D 80 24          adc     CH_xh,x
  421  01:C9D1  9D 80 24          sta     CH_xh,x
  422                     
  423  01:C9D4  B9 00 25          lda     CH_yl,y
  424  01:C9D7  18                clc
  425  01:C9D8  7D 00 25          adc     CH_yl,x
  426  01:C9DB  9D 00 25          sta     CH_yl,x
  427  01:C9DE  B9 80 25          lda     CH_yh,y
  428  01:C9E1  7D 80 25          adc     CH_yh,x
  429  01:C9E4  9D 80 25          sta     CH_yh,x
  430                     
  431  01:C9E7  18                clc
  432  01:C9E8  60                rts
  433  01:C9E9            .hide:
  434  01:C9E9  62                cla
  435  01:C9EA  9D 80 24          sta     CH_xh,x
  436  01:C9ED  9D 80 25          sta     CH_yh,x
  437                     
  438  01:C9F0  18                clc
  439  01:C9F1  60                rts
  440                     
  441                     
  442  01:C9F2            PB_fire_1_move:
  443  01:C9F2  BD 00 2F          lda     CH_var0,x
  444  01:C9F5  C5 2B             cmp     <z_fire_count
  445  01:C9F7  B0 71             bcs     .hide
  446                     
  447  01:C9F9  BD 00 30          lda     CH_var2,x
  448  01:C9FC  29 03             and     #$03
  449  01:C9FE  D0 12             bne     .next
  450  01:CA00  BD 00 30          lda     CH_var2,x
  451  01:CA03  4A                lsr     a
  452  01:CA04  4A                lsr     a
  453  01:CA05  A8                tay
  454  01:CA06  BD 00 28          lda     CH_dir,x
  455  01:CA09  9D 80 2F          sta     CH_var1,x
  456  01:CA0C  B9 73 CA          lda     .dirtbl,y
  457  01:CA0F  9D 00 28          sta     CH_dir,x
  458  01:CA12            .next:
  459  01:CA12  BD 00 30          lda     CH_var2,x
  460  01:CA15  1A                inc     a
  461  01:CA16  C9 80             cmp     #128
  462  01:CA18  90 01             bcc     .set
  463  01:CA1A  62                cla
  464  01:CA1B            .set:
  465  01:CA1B  9D 00 30          sta     CH_var2,x
  466                     
  467  01:CA1E  BC 00 28          ldy     CH_dir,x
  468  01:CA21  B9 93 CA          lda     PB_fire_dxl_table,y
  469  01:CA24  9D 00 24          sta     CH_xl,x
  470  01:CA27  B9 B3 CA          lda     PB_fire_dxh_table,y
  471  01:CA2A  9D 80 24          sta     CH_xh,x
  472  01:CA2D  B9 D3 CA          lda     PB_fire_dyl_table,y
  473  01:CA30  9D 00 25          sta     CH_yl,x
  474  01:CA33  B9 F3 CA          lda     PB_fire_dyh_table,y
  475  01:CA36  9D 80 25          sta     CH_yh,x
  476                     
  477  01:CA39  BD 80 32          lda     CH_role_prev,x
  478  01:CA3C  D0 03             bne     .setpos
  479  01:CA3E  AD F0 34          lda     PL_chr
  480  01:CA41            .setpos:
  481  01:CA41  A8                tay
  482                     
  483  01:CA42  B9 00 24          lda     CH_xl,y
  484  01:CA45  18                clc
  485  01:CA46  7D 00 24          adc     CH_xl,x
  486  01:CA49  9D 00 24          sta     CH_xl,x
  487  01:CA4C  B9 80 24          lda     CH_xh,y
  488  01:CA4F  7D 80 24          adc     CH_xh,x
  489  01:CA52  9D 80 24          sta     CH_xh,x
  490                     
  491  01:CA55  B9 00 25          lda     CH_yl,y
  492  01:CA58  18                clc
  493  01:CA59  7D 00 25          adc     CH_yl,x
  494  01:CA5C  9D 00 25          sta     CH_yl,x
  495  01:CA5F  B9 80 25          lda     CH_yh,y
  496  01:CA62  7D 80 25          adc     CH_yh,x
  497  01:CA65  9D 80 25          sta     CH_yh,x
  498                     
  499  01:CA68  18                clc
  500  01:CA69  60                rts
  501  01:CA6A            .hide:
  502  01:CA6A  62                cla
  503  01:CA6B  9D 80 24          sta     CH_xh,x
  504  01:CA6E  9D 80 25          sta     CH_yh,x
  505                     
  506  01:CA71  18                clc
  507  01:CA72  60                rts
  508  01:CA73            .dirtbl:
  509  01:CA73  0F 0F 0E          .db     15,15,14,14,13,13,12,12,11,11,10,10, 9, 9, 8, 8
       01:CA76  0E 0D 0D  
       01:CA79  0C 0C 0B  
       01:CA7C  0B 0A 0A  
       01:CA7F  09 09 08  
       01:CA82  08        
  510  01:CA83  08 08 09          .db      8, 8, 9, 9,10,10,11,11,12,12,13,13,14,14,15,15
       01:CA86  09 0A 0A  
       01:CA89  0B 0B 0C  
       01:CA8C  0C 0D 0D  
       01:CA8F  0E 0E 0F  
       01:CA92  0F        
  511                     
  512  01:CA93            PB_fire_dxl_table:
  513  01:CA93  00 4F 38      .db $00,$4f,$38,$b3,$b0,$1d,$e1,$e1,$00,$1f,$1f,$e3,$50,$4d,$c8,$b1
       01:CA96  B3 B0 1D  
       01:CA99  E1 E1 00  
       01:CA9C  1F 1F E3  
       01:CA9F  50 4D C8  
       01:CAA2  B1        
  514  01:CAA3  00 B1 C8      .db $00,$b1,$c8,$4d,$50,$e3,$1f,$1f,$00,$e1,$e1,$1d,$b0,$b3,$38,$4f
       01:CAA6  4D 50 E3  
       01:CAA9  1F 1F 00  
       01:CAAC  E1 E1 1D  
       01:CAAF  B0 B3 38  
       01:CAB2  4F        
  515  01:CAB3            PB_fire_dxh_table:
  516  01:CAB3  F0 F0 F1      .db $f0,$f0,$f1,$f2,$f4,$f7,$f9,$fc,$00,$03,$06,$08,$0b,$0d,$0e,$0f
       01:CAB6  F2 F4 F7  
       01:CAB9  F9 FC 00  
       01:CABC  03 06 08  
       01:CABF  0B 0D 0E  
       01:CAC2  0F        
  517  01:CAC3  10 0F 0E      .db $10,$0f,$0e,$0d,$0b,$08,$06,$03,$00,$fc,$f9,$f7,$f4,$f2,$f1,$f0
       01:CAC6  0D 0B 08  
       01:CAC9  06 03 00  
       01:CACC  FC F9 F7  
       01:CACF  F4 F2 F1  
       01:CAD2  F0        
  518  01:CAD3            PB_fire_dyl_table:
  519  01:CAD3  00 E1 E1      .db $00,$e1,$e1,$1d,$b0,$b3,$38,$4f,$00,$4f,$38,$b3,$b0,$1d,$e1,$e1
       01:CAD6  1D B0 B3  
       01:CAD9  38 4F 00  
       01:CADC  4F 38 B3  
       01:CADF  B0 1D E1  
       01:CAE2  E1        
  520  01:CAE3  00 1F 1F      .db $00,$1f,$1f,$e3,$50,$4d,$c8,$b1,$00,$b1,$c8,$4d,$50,$e3,$1f,$1f
       01:CAE6  E3 50 4D  
       01:CAE9  C8 B1 00  
       01:CAEC  B1 C8 4D  
       01:CAEF  50 E3 1F  
       01:CAF2  1F        
  521  01:CAF3            PB_fire_dyh_table:
  522  01:CAF3  00 FC F9      .db $00,$fc,$f9,$f7,$f4,$f2,$f1,$f0,$f0,$f0,$f1,$f2,$f4,$f7,$f9,$fc
       01:CAF6  F7 F4 F2  
       01:CAF9  F1 F0 F0  
       01:CAFC  F0 F1 F2  
       01:CAFF  F4 F7 F9  
       01:CB02  FC        
  523  01:CB03  00 03 06      .db $00,$03,$06,$08,$0b,$0d,$0e,$0f,$10,$0f,$0e,$0d,$0b,$08,$06,$03
       01:CB06  08 0B 0D  
       01:CB09  0E 0F 10  
       01:CB0C  0F 0E 0D  
       01:CB0F  0B 08 06  
       01:CB12  03        
#[1]   same.asm
#[2]   direction.asm
   13                             .include "direction.asm"
    1                     
    2           202C              .zp
    3  --:202C            z_dir_targetx:  .ds     1       ;target x pos
    4  --:202D            z_dir_targety:  .ds     1       ;target y pos
    5  --:202E            z_dir_sourcex:  .ds     1       ;source x pos
    6  --:202F            z_dir_sourcey:  .ds     1       ;source y pos
    7  --:2030            z_dir_dx:       .ds     1       ;dx
    8  --:2031            z_dir_dy:       .ds     1       ;du
    9  --:2032            z_dir_flag:     .ds     1       ;flag
   10                                                     ; bit0,4-7: always 0
   11                                                     ; bit1 : 1 => dx<dy
   12                                                     ; bit2 : 1 => dx<0
   13                                                     ; bit3 : 1 => dy<0 
   14  --:2033            z_dir_quotient: .ds     1       ;quotient
   15                     
   16  --:2034            z_dir_multiplicand:     .ds     2
   17  --:2036            z_dir_multiplier:       .ds     2
   18  --:2038            z_dir_result_dx:        .ds     2
   19  --:203A            z_dir_result_dy:        .ds     2
   20                     
   21           CB13              .code
   22           0001              .bank   MAIN_BANK
   23                     
   24                             ; z_dir_targetx
   25                             ; z_dir_targety
   26                             ; z_dir_sourcex
   27                             ; z_dir_sourcey
   28                             ; return  a
   29  01:CB13            getDirection:
   30  01:CB13  DA                phx
   31                     
   32  01:CB14  64 32             stz     <z_dir_flag
   33                                     ; dx=(targetx-sourcex)/4
   34  01:CB16  A5 2C             lda     <z_dir_targetx
   35  01:CB18  38                sec
   36  01:CB19  E5 2E             sbc     <z_dir_sourcex
   37  01:CB1B  B0 05             bcs     .01
   38                                     ; target < source
   39  01:CB1D  A7 32             smb2    <z_dir_flag
   40  01:CB1F  49 FF             eor     #$ff
   41  01:CB21  1A                inc     a
   42  01:CB22  4A        .01:    lsr     a
   43  01:CB23  85 30             sta     <z_dir_dx
   44                     
   45                                     ; dy=(tagety-sourcey)/4
   46  01:CB25  A5 2D             lda     <z_dir_targety
   47  01:CB27  38                sec
   48  01:CB28  E5 2F             sbc     <z_dir_sourcey
   49  01:CB2A  B0 05             bcs     .02
   50                                     ; target < source
   51  01:CB2C  B7 32             smb3    <z_dir_flag
   52  01:CB2E  49 FF             eor     #$ff
   53  01:CB30  1A                inc     a
   54  01:CB31  4A        .02:    lsr     a
   55  01:CB32  85 31             sta     <z_dir_dy
   56                     
   57                                     ; dy=0?
   58  01:CB34  F0 12             beq     .dy0
   59                                     ; dx=0?
   60  01:CB36  83 00 30          tst     #$00,<z_dir_dx
   61  01:CB39  F0 1A             beq     .dxdynot0
   62                                     ; dx=0
   63  01:CB3B  83 08 32          tst     #$08,<z_dir_flag        ; dy>0 ?
   64  01:CB3E  D0 04             bne     .dir8
   65  01:CB40  A9 18             lda     #24                     ; dy>0
   66  01:CB42  FA                plx
   67  01:CB43  60                rts
   68  01:CB44  A9 08     .dir8:  lda     #8                      ; dy<0
   69  01:CB46  FA                plx
   70  01:CB47  60                rts
   71                                     ; dy=0
   72  01:CB48            .dy0:
   73  01:CB48  83 04 32          tst     #$04,<z_dir_flag        ; dx>=0 ?
   74  01:CB4B  D0 04             bne     .dir0
   75  01:CB4D  A9 10             lda     #16                     ; dx>=0
   76  01:CB4F  FA                plx
   77  01:CB50  60                rts
   78  01:CB51  A9 00     .dir0:  lda     #0                      ; dx<0
   79  01:CB53  FA                plx
   80  01:CB54  60                rts
   81                     
   82  01:CB55            .dxdynot0:
   83                                     ; dy>dx ?
   84  01:CB55  C5 30             cmp     <z_dir_dx
   85  01:CB57  90 08             bcc     .03
   86                                     ; dy>dx
   87  01:CB59  97 32             smb1    <z_dir_flag
   88                                     ; swap dx/dy
   89  01:CB5B  A6 30             ldx     <z_dir_dx
   90  01:CB5D  85 30             sta     <z_dir_dx
   91  01:CB5F  86 31             stx     <z_dir_dy
   92  01:CB61            .03:
   93                                     ; z_dir_quotient=dy/dx  dx and dy are 7bit
   94  01:CB61  A2 08             ldx     #8
   95  01:CB63  A5 31             lda     <z_dir_dy
   96  01:CB65            .divloop:
   97  01:CB65  0A                asl     a
   98  01:CB66  C5 30             cmp     <z_dir_dx
   99  01:CB68  90 02             bcc     .divskip
  100  01:CB6A  E5 30             sbc     <z_dir_dx
  101  01:CB6C            .divskip:
  102  01:CB6C  26 33             rol     <z_dir_quotient
  103  01:CB6E  CA                dex
  104  01:CB6F  D0 F4             bne     .divloop
  105                     
  106                                     ; quotient -> direction index
  107  01:CB71  A5 33             lda     <z_dir_quotient
  108  01:CB73  C9 4D             cmp     #$4d
  109  01:CB75  B0 0C             bcs     .d020304
  110  01:CB77  C9 19             cmp     #$19
  111  01:CB79  B0 04             bcs     .d01
  112  01:CB7B  A9 00             lda     #0
  113  01:CB7D  80 16             bra     .d
  114  01:CB7F  A9 01     .d01:   lda     #1
  115  01:CB81  80 12             bra     .d
  116  01:CB83            .d020304:
  117  01:CB83  C9 88             cmp     #$88
  118  01:CB85  90 08             bcc     .d02
  119  01:CB87  C9 D2             cmp     #$d2
  120  01:CB89  90 08             bcc     .d03
  121  01:CB8B  A9 04             lda     #4
  122  01:CB8D  80 06             bra     .d
  123  01:CB8F  A9 02     .d02:   lda     #2
  124  01:CB91  80 02             bra     .d
  125  01:CB93  A9 03     .d03:   lda     #3
  126  01:CB95            .d:     
  127                                     ; adjust direction index
  128  01:CB95  A6 32             ldx     <z_dir_flag
  129  01:CB97  7C 9A CB          jmp     [.jmptbl,x]
  130  01:CB9A  AA CB     .jmptbl .dw     .f000,.f001,.f010,.f011,.f100,.f101,.f110,.f111
       01:CB9C  AF CB     
       01:CB9E  B7 CB     
       01:CBA0  C1 CB     
       01:CBA2  C6 CB     
       01:CBA4  CE CB     
       01:CBA6  D3 CB     
       01:CBA8  D5 CB     
  131  01:CBAA            .f000:
  132  01:CBAA  18                clc
  133  01:CBAB  69 10             adc     #16
  134  01:CBAD  FA                plx
  135  01:CBAE  60                rts
  136  01:CBAF            .f001:
  137  01:CBAF  49 FF             eor     #$ff
  138  01:CBB1  1A                inc     a
  139  01:CBB2  18                clc
  140  01:CBB3  69 18             adc     #24
  141  01:CBB5  FA                plx
  142  01:CBB6  60                rts
  143  01:CBB7            .f010:
  144  01:CBB7  49 FF             eor     #$ff
  145  01:CBB9  1A                inc     a
  146  01:CBBA  18                clc
  147  01:CBBB  69 20             adc     #32
  148  01:CBBD  29 1F             and     #$1f    ;
  149  01:CBBF  FA                plx
  150  01:CBC0  60                rts
  151  01:CBC1            .f011:
  152  01:CBC1  18                clc
  153  01:CBC2  69 18             adc     #24
  154  01:CBC4  FA                plx
  155  01:CBC5  60                rts
  156  01:CBC6            .f100:
  157  01:CBC6  49 FF             eor     #$ff
  158  01:CBC8  1A                inc     a
  159  01:CBC9  18                clc
  160  01:CBCA  69 10             adc     #16
  161  01:CBCC  FA                plx
  162  01:CBCD  60                rts
  163  01:CBCE            .f101:
  164  01:CBCE  18                clc
  165  01:CBCF  69 08             adc     #8
  166  01:CBD1  FA                plx
  167  01:CBD2  60                rts
  168  01:CBD3            .f110:
  169  01:CBD3  FA                plx
  170  01:CBD4  60                rts
  171  01:CBD5            .f111:
  172  01:CBD5  49 FF             eor     #$ff
  173  01:CBD7  1A                inc     a
  174  01:CBD8  18                clc
  175  01:CBD9  69 08             adc     #8
  176  01:CBDB  FA                plx
  177  01:CBDC  60                rts
  178                     
  179                     
  180  01:CBDD            dirtable_x_l:
  181  01:CBDD  80 83 8A      .db $80,$83,$8a,$96,$a6,$b9,$d0,$e8,$00,$18,$30,$47,$5a,$6a,$76,$7d
       01:CBE0  96 A6 B9  
       01:CBE3  D0 E8 00  
       01:CBE6  18 30 47  
       01:CBE9  5A 6A 76  
       01:CBEC  7D        
  182  01:CBED  80 7D 76      .db $80,$7d,$76,$6a,$5a,$47,$30,$18,$00,$e8,$d0,$b9,$a6,$96,$8a,$83
       01:CBF0  6A 5A 47  
       01:CBF3  30 18 00  
       01:CBF6  E8 D0 B9  
       01:CBF9  A6 96 8A  
       01:CBFC  83        
  183  01:CBFD            dirtable_x_h:
  184  01:CBFD  FF FF FF      .db $ff,$ff,$ff,$ff,$ff,$ff,$ff,$ff,$00,$00,$00,$00,$00,$00,$00,$00
       01:CC00  FF FF FF  
       01:CC03  FF FF 00  
       01:CC06  00 00 00  
       01:CC09  00 00 00  
       01:CC0C  00        
  185  01:CC0D  00 00 00      .db $00,$00,$00,$00,$00,$00,$00,$00,$00,$ff,$ff,$ff,$ff,$ff,$ff,$ff
       01:CC10  00 00 00  
       01:CC13  00 00 00  
       01:CC16  FF FF FF  
       01:CC19  FF FF FF  
       01:CC1C  FF        
  186  01:CC1D            dirtable_y_l:
  187  01:CC1D  00 E8 D0      .db $00,$e8,$d0,$b9,$a6,$96,$8a,$83,$80,$83,$8a,$96,$a6,$b9,$d0,$e8
       01:CC20  B9 A6 96  
       01:CC23  8A 83 80  
       01:CC26  83 8A 96  
       01:CC29  A6 B9 D0  
       01:CC2C  E8        
  188  01:CC2D  00 18 30      .db $00,$18,$30,$47,$5a,$6a,$76,$7d,$80,$7d,$76,$6a,$5a,$47,$30,$18
       01:CC30  47 5A 6A  
       01:CC33  76 7D 80  
       01:CC36  7D 76 6A  
       01:CC39  5A 47 30  
       01:CC3C  18        
  189  01:CC3D            dirtable_y_h:
  190  01:CC3D  00 FF FF      .db $00,$ff,$ff,$ff,$ff,$ff,$ff,$ff,$ff,$ff,$ff,$ff,$ff,$ff,$ff,$ff
       01:CC40  FF FF FF  
       01:CC43  FF FF FF  
       01:CC46  FF FF FF  
       01:CC49  FF FF FF  
       01:CC4C  FF        
  191  01:CC4D  00 00 00      .db $00,$00,$00,$00,$00,$00,$00,$00,$00,$00,$00,$00,$00,$00,$00,$00
       01:CC50  00 00 00  
       01:CC53  00 00 00  
       01:CC56  00 00 00  
       01:CC59  00 00 00  
       01:CC5C  00        
  192                     
  193                             ; y=direction
  194                             ; a=length of vector
  195                             ; @result
  196                             ; z_dir_result_dx
  197                             ; z_dir_result_dy
  198  01:CC5D            convDirection2DxDy:
  199                                     ; result_dx=dx*a
  200  01:CC5D  85 36             sta     <z_dir_multiplier
  201  01:CC5F  48                pha
  202                     
  203  01:CC60  B9 DD CB          lda     dirtable_x_l,y
  204  01:CC63  85 34             sta     <z_dir_multiplicand
  205  01:CC65  B9 FD CB          lda     dirtable_x_h,y
  206  01:CC68  85 35             sta     <z_dir_multiplicand+1
  207                     
  208  01:CC6A  64 38             stz     <z_dir_result_dx
  209  01:CC6C  64 39             stz     <z_dir_result_dx+1
  210  01:CC6E  A2 08             ldx     #8
  211  01:CC70            .loopx:
  212  01:CC70  46 36             lsr     <z_dir_multiplier
  213  01:CC72  90 0D             bcc     .nextx
  214  01:CC74  A5 38     .addx:  lda     <z_dir_result_dx
  215  01:CC76  18                clc
  216  01:CC77  65 34             adc     <z_dir_multiplicand
  217  01:CC79  85 38             sta     <z_dir_result_dx
  218  01:CC7B  A5 39             lda     <z_dir_result_dx+1
  219  01:CC7D  65 35             adc     <z_dir_multiplicand+1
  220  01:CC7F  85 39             sta     <z_dir_result_dx+1
  221  01:CC81            .nextx:
  222  01:CC81  06 34             asl     <z_dir_multiplicand
  223  01:CC83  26 35             rol     <z_dir_multiplicand+1
  224  01:CC85  CA                dex
  225  01:CC86  D0 E8             bne     .loopx
  226  01:CC88            .endx:
  227                                     ; result_dy=dy*a
  228  01:CC88  68                pla
  229  01:CC89  85 36             sta     <z_dir_multiplier
  230                     
  231  01:CC8B  B9 1D CC          lda     dirtable_y_l,y
  232  01:CC8E  85 34             sta     <z_dir_multiplicand
  233  01:CC90  B9 3D CC          lda     dirtable_y_h,y
  234  01:CC93  85 35             sta     <z_dir_multiplicand+1
  235                     
  236                     
  237  01:CC95  64 3A             stz     <z_dir_result_dy
  238  01:CC97  64 3B             stz     <z_dir_result_dy+1
  239  01:CC99  A2 08             ldx     #8
  240  01:CC9B            .loopy:
  241  01:CC9B  46 36             lsr     <z_dir_multiplier
  242  01:CC9D  90 0D             bcc     .nexty
  243  01:CC9F  A5 3A     .addy:  lda     <z_dir_result_dy
  244  01:CCA1  18                clc
  245  01:CCA2  65 34             adc     <z_dir_multiplicand
  246  01:CCA4  85 3A             sta     <z_dir_result_dy
  247  01:CCA6  A5 3B             lda     <z_dir_result_dy+1
  248  01:CCA8  65 35             adc     <z_dir_multiplicand+1
  249  01:CCAA  85 3B             sta     <z_dir_result_dy+1
  250  01:CCAC            .nexty:
  251  01:CCAC  06 34             asl     <z_dir_multiplicand
  252  01:CCAE  26 35             rol     <z_dir_multiplicand+1
  253  01:CCB0  CA                dex
  254  01:CCB1  D0 E8             bne     .loopy
  255  01:CCB3            .endy:
  256  01:CCB3  60                rts
  257                     
#[1]   same.asm
#[2]   enemy.asm
   14                             .include "enemy.asm"
    1           203C              .zp
    2                     ;z_last_new_chr  .ds     1       ;Áõ¥Ââç„Å´ÁîüÊàê„Åï„Çå„Åü„Ç≠„É£„É©„ÇØ„ÇøÁï™Âè∑ÔºàË§áÊï∞„Ç≠„É£„É©„ÅåÈÄ£Êê∫„Åó„Å¶„ÅÑ„ÇãÂ†¥Âêà„Å´‰Ωø„Å
    3  --:203C            z_eni_ptr       .ds     2       ;ÁîüÊàêÊôÇ„ÅÆÂàùÊúüÂåñ„Çπ„ÇØ„É™„Éó„Éà„ÅÆ„Éù„Ç§„É≥„Çø
    4                     
    5  --:203E            z_en_init_xl:   .ds     1
    6  --:203F            z_en_init_xh:   .ds     1
    7  --:2040            z_en_init_yl:   .ds     1
    8  --:2041            z_en_init_yh:   .ds     1
    9                     
   10                     
   11           CCB4              .code
   12           0001              .bank   MAIN_BANK
   13                     
   14                     ;------------------------------
   15                     ; @experimental
   16                     ;  Ë§áÊï∞„Ç≠„É£„É©„ÅÆÁµÑ„ÅøÂêà„Çè„Åõ
   17                     
   18  01:CCB4            ENcreate_Tank:
   19  01:CCB4  64 3E             stz     <z_en_init_xl
   20  01:CCB6  A9 B8             lda     #(336+$20)/2
   21  01:CCB8  85 3F             sta     <z_en_init_xh
   22  01:CCBA  64 40             stz     <z_en_init_yl
   23  01:CCBC  AD 09 20          lda     scry
   24  01:CCBF  4A                lsr     a
   25  01:CCC0  85 20             sta     <z_tmp15
   26  01:CCC2  A5 27             lda     <z_frame
   27  01:CCC4  0A                asl     a
   28  01:CCC5  29 3C             and     #$3c
   29  01:CCC7  69 78             adc     #30*8/2
   30  01:CCC9  E5 20             sbc     <z_tmp15
   31  01:CCCB  85 41             sta     <z_en_init_yh
   32                             
   33                     
   34  01:CCCD  A0 00             ldy     #0
   35  01:CCCF  20 F8 CC          jsr     ENcreate_Ex
   36  01:CCD2  60                rts
   37                     
   38  01:CCD3            ENcreate_Boat_v:
   39  01:CCD3  64 3E             stz     <z_en_init_xl
   40  01:CCD5  A9 B8             lda     #(336+$20)/2
   41  01:CCD7  85 3F             sta     <z_en_init_xh
   42  01:CCD9  64 40             stz     <z_en_init_yl
   43  01:CCDB  AD 09 20          lda     scry
   44  01:CCDE  4A                lsr     a
   45  01:CCDF  85 20             sta     <z_tmp15
   46  01:CCE1  A5 27             lda     <z_frame
   47  01:CCE3  0A                asl     a
   48  01:CCE4  29 3C             and     #$3c
   49  01:CCE6  69 30             adc     #12*8/2
   50  01:CCE8  E5 20             sbc     <z_tmp15
   51  01:CCEA  85 41             sta     <z_en_init_yh
   52                     
   53                     
   54  01:CCEC  A0 03             ldy     #3
   55  01:CCEE  20 F8 CC          jsr     ENcreate_Ex
   56  01:CCF1  60                rts
   57                     
   58                     
   59                     
   60  01:CCF2            ENcreate_Big:
   61  01:CCF2  A0 01             ldy     #1
   62  01:CCF4  20 F8 CC          jsr     ENcreate_Ex
   63  01:CCF7  60                rts
   64                     
   65                     
   66                     ;------------------------------
   67                     ; Êïµ„Ç≠„É£„É©„ÇØ„Çø„Éº„ÇíÁîüÊàê
   68                     ;
   69                     ; @param        y       Êïµ„Çø„Ç§„ÉóÁï™Âè∑
   70                     ; @return       c=0     ÊàêÂäü
   71                     ; @save         -
   72                     
   73  01:CCF8            ENcreate_Ex:
   74                                     ;Êïµ„Çø„Ç§„Éó„Å´ÂØæÂøú„Åô„ÇãÂàùÊúüÂåñ„Çπ„ÇØ„É™„Éó„Éà„ÅÆ„Éù„Ç§„É≥„Çø
   75           203C      .tmp_eni_ptr    .equ    z_eni_ptr
   76  01:CCF8  B9 4A CD          lda     ENinitPtrTable_l,y
   77  01:CCFB  85 3C             sta     <.tmp_eni_ptr
   78  01:CCFD  B9 4E CD          lda     ENinitPtrTable_h,y
   79  01:CD00  85 3D             sta     <.tmp_eni_ptr+1
   80                     
   81                                     ;ÂàùÊúüÂåñ„Çπ„ÇØ„É™„Éó„ÉàÂá¶ÁêÜ
   82                                     ;„É≠„Éº„É´„ÇØ„É©„Çπ„Åî„Å®„Å´„Ç≠„É£„É©„ÅÆÁ©∫„Åç„Åå„ÅÇ„Çã„ÅãË™ø„Åπ„Çã
   83                                     ;ÂøÖË¶Å„Å™„É≠„Éº„É´„ÇØ„É©„Çπ„Å´1„Å§„Åß„ÇÇÁ©∫„Åç„Åå„Å™„Åë„Çå„Å∞„Ç≠„É£„É©„ÇíÁîüÊàê„Åó„Å™„ÅÑ
   84  01:CD02  C2                cly
   85  01:CD03            .chkloop:
   86  01:CD03  B1 3C             lda     [.tmp_eni_ptr],y                ;„É≠„Éº„É´„ÇØ„É©„Çπ
   87  01:CD05  F0 0E             beq     .chkok                          ;„É≠„Éº„É´„ÇØ„É©„Çπ„Åå0„Å™„ÇâÊ¨°„Å∏
   88  01:CD07  AA                tax
   89  01:CD08  C8                iny
   90  01:CD09  B1 3C             lda     [.tmp_eni_ptr],y                ;ÁîüÊàê‰∫àÂÆö„ÅÆ„Ç≠„É£„É©Êï∞
   91  01:CD0B  C8                iny
   92  01:CD0C  DD A6 34          cmp     CDrv_role_class_unusedchrnum,x
   93  01:CD0F  90 F2             bcc     .chkloop
   94  01:CD11  F0 F0             beq     .chkloop
   95                                     ;Á©∫„Åç„Åå„Å™„Åã„Å£„Åü„ÅÆ„Åß„ÄÅÁîüÊàê„Åõ„Åö„Å´ÁµÇ‰∫Ü
   96  01:CD13  38                sec
   97  01:CD14  60                rts
   98  01:CD15            .chkok:
   99                     
  100                                     ;„Ç≠„É£„É©„ÇØ„Çø„Éº„Çí1„Å§„Åö„Å§ÁîüÊàê
  101  01:CD15  C8                iny
  102  01:CD16  64 13             stz     <z_tmp2                         ;ÊúÄÂàù„ÅØË¶™„Ç≠„É£„É©„Å™„ÅÆ„Åß0
  103  01:CD18            .addloop:
  104  01:CD18  B1 3C             lda     [.tmp_eni_ptr],y                ;„É≠„Éº„É´„ÇØ„É©„Çπ
  105  01:CD1A  F0 2C             beq     .addend                         ;„É≠„Éº„É´„ÇØ„É©„Çπ„Åå0„Å™„ÇâÁµÇ„Çè„Çä
  106  01:CD1C  85 11             sta     <z_tmp0
  107  01:CD1E  C8                iny
  108  01:CD1F  B1 3C             lda     [.tmp_eni_ptr],y                ;„Çπ„Éó„É©„Ç§„Éà„ÇØ„É©„Çπ
  109  01:CD21  85 12             sta     <z_tmp1
  110  01:CD23  C8                iny
  111  01:CD24  5A                phy
  112  01:CD25  20 AE C2          jsr     CDRVaddChr
  113  01:CD28  02                sxy                                     ;x=ÁîüÊàê„Åó„Åü„Ç≠„É£„É©
  114  01:CD29  7A                ply
  115                                     ;„Ç≠„É£„É©ÂàùÊúüÂåñ
  116  01:CD2A  B1 3C             lda     [.tmp_eni_ptr],y                ;ÂàùÊúüÂåñ„É´„Éº„ÉÅ„É≥„Ç¢„Éâ„É¨„Çπ
  117  01:CD2C  85 11             sta     <z_tmp0
  118  01:CD2E  C8                iny
  119  01:CD2F  B1 3C             lda     [.tmp_eni_ptr],y                ;ÂàùÊúüÂåñ„É´„Éº„ÉÅ„É≥„Ç¢„Éâ„É¨„Çπ
  120  01:CD31  85 12             sta     <z_tmp1
  121  01:CD33  C8                iny
  122  01:CD34  5A                phy
  123                     
  124  01:CD35  A9 CD             lda     #HIGH(.end-1)                   ;Ë¶ÅÊ≥®ÊÑè push„Åô„Çã„ÅÆ„ÅØ Êàª„Çä„Ç¢„Éâ„É¨„Çπ-1
  125  01:CD37  48                pha
  126  01:CD38  A9 3D             lda     #LOW(.end-1)
  127  01:CD3A  48                pha
  128                     
  129  01:CD3B  6C 11 20          jmp     [z_tmp0]                        ;ÂàùÊúüÂåñ„É´„Éº„ÉÅ„É≥
  130  01:CD3E            .end:
  131  01:CD3E  7A                ply
  132                                     ;ÁîüÊàê„Åô„Çã„Ç≠„É£„É©„Åå2„Å§‰ª•‰∏ä„ÅÇ„ÇãÂ†¥Âêà„ÄÅÊúÄÂàù„ÅØË¶™„ÄÅ2„Å§ÁõÆ‰ª•Èôç„ÅØÂ≠ê‰æõ„Å®„Åó„Å¶Êâ±„ÅÜ
  133  01:CD3F  83 FF 13          tst     #$ff,<z_tmp2                    ;Ë¶™„Ç≠„É£„É©=0 „ÅÆÊôÇ„Å†„Åë„ÄÅË¶™„Ç≠„É£„É©Áï™Âè∑„Çí‰øùÂ≠ò
  134  01:CD42  D0 D4             bne     .addloop
  135  01:CD44  86 13             stx     <z_tmp2
  136  01:CD46  80 D0             bra     .addloop
  137                     
  138  01:CD48            .addend:
  139  01:CD48  18                clc
  140  01:CD49  60                rts
  141                             
  142                     
  143                     ;Êïµ„Ç≠„É£„É©„ÅÆÂàùÊúüÂåñ„Çπ„ÇØ„É™„Éó„Éà„ÅÆ„Éù„Ç§„É≥„Çø„ÉÜ„Éº„Éñ„É´
  144                     
  145  01:CD4A            ENinitPtrTable_l:
  146  01:CD4A  52                .db  LOW(ENI_tank)
  147  01:CD4B  72                .db  LOW(ENI_big)
  148  01:CD4C  8C                .db  LOW(ENI_bigexp)
  149  01:CD4D  60                .db     LOW(ENI_boat_v)
  150                     
  151  01:CD4E            ENinitPtrTable_h:
  152  01:CD4E  CD                .db  HIGH(ENI_tank)
  153  01:CD4F  CD                .db  HIGH(ENI_big)
  154  01:CD50  CD                .db  HIGH(ENI_bigexp)
  155  01:CD51  CD                .db     HIGH(ENI_boat_v)
  156                     
  157                     
  158                     ;ÂàùÊúüÂåñ„Çπ„ÇØ„É™„Éó„Éà
  159                     
  160                     
  161  01:CD52            ENI_tank:
  162  01:CD52  0B 01             .db     CDRV_ROLE_ENEMY_G1,1
  163  01:CD54  0C 01             .db     CDRV_ROLE_ENEMY_G2,1
  164  01:CD56  00                .db     0
  165  01:CD57  0B 09             .db     CDRV_ROLE_ENEMY_G1,CDRV_SPR_ENEMY_G1
  166  01:CD59  A1 CD             .dw     ENTank_init
  167  01:CD5B  0C 08             .db     CDRV_ROLE_ENEMY_G2,CDRV_SPR_ENEMY_G2
  168  01:CD5D  0B CE             .dw     ENTankTurret_init
  169  01:CD5F  00                .db     0
  170                     
  171  01:CD60            ENI_boat_v:
  172  01:CD60  0B 01             .db     CDRV_ROLE_ENEMY_G1,1
  173  01:CD62  0C 02             .db     CDRV_ROLE_ENEMY_G2,2
  174  01:CD64  00                .db     0
  175  01:CD65  0B 09             .db     CDRV_ROLE_ENEMY_G1,CDRV_SPR_ENEMY_G1
  176  01:CD67  5E CE             .dw     ENBoat_v_init
  177  01:CD69  0C 08             .db     CDRV_ROLE_ENEMY_G2,CDRV_SPR_ENEMY_G2    ;Á†≤Â°î„ÅØÊú¨‰Ωì„ÅÆÊ¨°ÔºÅ
  178  01:CD6B  F1 CE             .dw     ENBoat_v_Turret_init
  179  01:CD6D  0C 08             .db     CDRV_ROLE_ENEMY_G2,CDRV_SPR_ENEMY_G3
  180  01:CD6F  C8 CE             .dw     ENBoat_v_sub_init
  181  01:CD71  00                .db     0
  182                     
  183  01:CD72            ENI_big:
  184  01:CD72  09 01             .db     CDRV_ROLE_ENEMY_S1,1
  185  01:CD74  0A 04             .db     CDRV_ROLE_ENEMY_S2,4
  186  01:CD76  00                .db     0
  187  01:CD77  09 04             .db     CDRV_ROLE_ENEMY_S1,CDRV_SPR_ENEMY_S1
  188  01:CD79  3C CF             .dw     ENBig_main_init
  189  01:CD7B  0A 05             .db     CDRV_ROLE_ENEMY_S2,CDRV_SPR_ENEMY_S2
  190  01:CD7D  9E CF             .dw     ENBig_sub0_init
  191  01:CD7F  0A 05             .db     CDRV_ROLE_ENEMY_S2,CDRV_SPR_ENEMY_S2
  192  01:CD81  E3 CF             .dw     ENBig_sub1_init
  193  01:CD83  0A 05             .db     CDRV_ROLE_ENEMY_S2,CDRV_SPR_ENEMY_S2
  194  01:CD85  28 D0             .dw     ENBig_sub2_init
  195  01:CD87  0A 05             .db     CDRV_ROLE_ENEMY_S2,CDRV_SPR_ENEMY_S2
  196  01:CD89  6D D0             .dw     ENBig_sub3_init
  197  01:CD8B  00                .db     0
  198                     
  199  01:CD8C            ENI_bigexp:
  200  01:CD8C  11 04             .db     CDRV_ROLE_EFFECT,4
  201  01:CD8E  00                .db     0
  202  01:CD8F  11 05             .db     CDRV_ROLE_EFFECT,CDRV_SPR_EFFECT_S
  203  01:CD91  2B D4             .dw     ENBigExp_0_init
  204  01:CD93  11 05             .db     CDRV_ROLE_EFFECT,CDRV_SPR_EFFECT_S
  205  01:CD95  6C D4             .dw     ENBigExp_1_init
  206  01:CD97  11 05             .db     CDRV_ROLE_EFFECT,CDRV_SPR_EFFECT_S
  207  01:CD99  AD D4             .dw     ENBigExp_2_init
  208  01:CD9B  11 05             .db     CDRV_ROLE_EFFECT,CDRV_SPR_EFFECT_S
  209  01:CD9D  EE D4             .dw     ENBigExp_3_init
  210  01:CD9F  00                .db     0
  211                     
  212                     
  213                     
  214                     
  215                     
  216                     ;------------------------------------------------
  217                     
  218  01:CDA0            ENDummy_init:
  219  01:CDA0  60                rts
  220                     
  221  01:CDA1            ENTank_init:
  222                     ;        stz     CH_xl,x
  223                     ;        lda     #(336+$20)/2
  224                     ;        sta     CH_xh,x
  225                     ;        stz     CH_yl,x
  226                     ;        lda     <z_frame
  227                     ;        asl     a
  228                     ;        sta     CH_yh,x
  229  01:CDA1  A5 3E             lda     <z_en_init_xl
  230  01:CDA3  9D 00 24          sta     CH_xl,x
  231  01:CDA6  A5 3F             lda     <z_en_init_xh
  232  01:CDA8  9D 80 24          sta     CH_xh,x
  233  01:CDAB  A5 40             lda     <z_en_init_yl
  234  01:CDAD  9D 00 25          sta     CH_yl,x
  235  01:CDB0  A5 41             lda     <z_en_init_yh
  236  01:CDB2  9D 80 25          sta     CH_yh,x
  237                     
  238  01:CDB5  A9 18             lda     #LOW(((spr_pattern_en-spr_pattern)/2+$4000)/32)
  239  01:CDB7  9D 00 2A          sta     CH_sprpatl,x
  240  01:CDBA  A9 02             lda     #HIGH(((spr_pattern_en-spr_pattern)/2+$4000)/32)
  241  01:CDBC  9D 80 2A          sta     CH_sprpath,x
  242                     
  243  01:CDBF  A9 83             lda     #$83
  244  01:CDC1  9D 00 2B          sta     CH_spratrl,x
  245  01:CDC4  A9 11             lda     #$11
  246  01:CDC6  9D 80 2B          sta     CH_spratrh,x
  247                     
  248  01:CDC9  A9 08             lda     #16/2
  249  01:CDCB  9D 00 2C          sta     CH_sprdx,x
  250  01:CDCE  9D 80 2C          sta     CH_sprdy,x
  251                     
  252  01:CDD1  A9 08             lda     #8
  253  01:CDD3  9D 00 2D          sta     CH_coldx,x
  254  01:CDD6  9D 80 2D          sta     CH_coldy,x
  255                     
  256  01:CDD9  A9 03             lda     #3
  257  01:CDDB  9D 00 2E          sta     CH_regist,x
  258                     
  259  01:CDDE  A9 01             lda     #1
  260  01:CDE0  9D 80 2E          sta     CH_damaged_class,x
  261                     
  262  01:CDE3  A9 0E             lda     #LOW(ENTank_move)
  263  01:CDE5  9D 00 29          sta     CH_procptrl,x
  264  01:CDE8  A9 D1             lda     #HIGH(ENTank_move)
  265  01:CDEA  9D 80 29          sta     CH_procptrh,x
  266                     
  267                     
  268  01:CDED  DA                phx
  269  01:CDEE  A9 01             lda     #1
  270  01:CDF0  A0 00             ldy     #0
  271  01:CDF2  20 5D CC          jsr     convDirection2DxDy
  272  01:CDF5  FA                plx
  273                     
  274  01:CDF6  A5 38             lda     <z_dir_result_dx
  275  01:CDF8  9D 00 26          sta     CH_dxl,x
  276  01:CDFB  A5 39             lda     <z_dir_result_dx+1
  277  01:CDFD  9D 80 26          sta     CH_dxh,x
  278  01:CE00  A5 3A             lda     <z_dir_result_dy
  279  01:CE02  9D 00 27          sta     CH_dyl,x
  280  01:CE05  A5 3B             lda     <z_dir_result_dy+1
  281  01:CE07  9D 80 27          sta     CH_dyh,x
  282                     
  283  01:CE0A  60                rts
  284                     
  285                     
  286  01:CE0B            ENTankTurret_init:
  287                     ;        ldy     <z_last_new_chr
  288  01:CE0B  BC 00 31          ldy     CH_grp_parent,x
  289                     
  290  01:CE0E  B9 00 24          lda     CH_xl,y
  291  01:CE11  9D 00 24          sta     CH_xl,x
  292  01:CE14  B9 80 24          lda     CH_xh,y
  293  01:CE17  9D 80 24          sta     CH_xh,x
  294  01:CE1A  B9 00 25          lda     CH_yl,y
  295  01:CE1D  9D 00 25          sta     CH_yl,x
  296  01:CE20  B9 80 25          lda     CH_yh,y
  297  01:CE23  9D 80 25          sta     CH_yh,x
  298                     
  299  01:CE26  A9 20             lda     #LOW(((spr_pattern_turret00-spr_pattern)/2+$4000)/32)
  300  01:CE28  9D 00 2A          sta     CH_sprpatl,x
  301  01:CE2B  A9 02             lda     #HIGH(((spr_pattern_turret00-spr_pattern)/2+$4000)/32)
  302  01:CE2D  9D 80 2A          sta     CH_sprpath,x
  303                     
  304  01:CE30  A9 83             lda     #$83
  305  01:CE32  9D 00 2B          sta     CH_spratrl,x
  306  01:CE35  A9 11             lda     #$11
  307  01:CE37  9D 80 2B          sta     CH_spratrh,x
  308                     
  309  01:CE3A  A9 08             lda     #16/2
  310  01:CE3C  9D 00 2C          sta     CH_sprdx,x
  311  01:CE3F  9D 80 2C          sta     CH_sprdy,x
  312                     
  313  01:CE42  A9 00             lda     #0
  314  01:CE44  9D 00 2D          sta     CH_coldx,x
  315  01:CE47  9D 80 2D          sta     CH_coldy,x
  316                     
  317  01:CE4A  A9 53             lda     #LOW(ENTankTurret_move)
  318  01:CE4C  9D 00 29          sta     CH_procptrl,x
  319  01:CE4F  A9 D1             lda     #HIGH(ENTankTurret_move)
  320  01:CE51  9D 80 29          sta     CH_procptrh,x
  321                     
  322  01:CE54  A9 00             lda     #0
  323  01:CE56  9D 00 28          sta     CH_dir,x
  324                     
  325  01:CE59  98                tya
  326  01:CE5A  9D 00 2F          sta     CH_var0,x               ;Êà¶ËªäÊú¨‰Ωì„ÅÆ„Ç≠„É£„É©„ÇØ„ÇøÁï™Âè∑
  327                     
  328  01:CE5D  60                rts
  329                     
  330                     ;-----
  331  01:CE5E            ENBoat_v_init:
  332                     ;        stz     CH_xl,x
  333                     ;        lda     #(336+$20)/2
  334                     ;        sta     CH_xh,x
  335                     ;        stz     CH_yl,x
  336                     ;        lda     <z_frame
  337                     ;        asl     a
  338                     ;        sta     CH_yh,x
  339  01:CE5E  A5 3E             lda     <z_en_init_xl
  340  01:CE60  9D 00 24          sta     CH_xl,x
  341  01:CE63  A5 3F             lda     <z_en_init_xh
  342  01:CE65  9D 80 24          sta     CH_xh,x
  343  01:CE68  A5 40             lda     <z_en_init_yl
  344  01:CE6A  9D 00 25          sta     CH_yl,x
  345  01:CE6D  A5 41             lda     <z_en_init_yh
  346  01:CE6F  9D 80 25          sta     CH_yh,x
  347                     
  348  01:CE72  A9 C0             lda     #LOW(((spr_pattern2_boatv_00-spr_pattern2)/2+$5000)/32)
  349  01:CE74  9D 00 2A          sta     CH_sprpatl,x
  350  01:CE77  A9 02             lda     #HIGH(((spr_pattern2_boatv_00-spr_pattern2)/2+$5000)/32)
  351  01:CE79  9D 80 2A          sta     CH_sprpath,x
  352                     
  353  01:CE7C  A9 85             lda     #$85
  354  01:CE7E  9D 00 2B          sta     CH_spratrl,x
  355  01:CE81  A9 11             lda     #$11
  356  01:CE83  9D 80 2B          sta     CH_spratrh,x
  357                     
  358  01:CE86  A9 08             lda     #16/2
  359  01:CE88  9D 00 2C          sta     CH_sprdx,x
  360  01:CE8B  9D 80 2C          sta     CH_sprdy,x
  361                     
  362  01:CE8E  A9 08             lda     #8
  363  01:CE90  9D 00 2D          sta     CH_coldx,x
  364  01:CE93  9D 80 2D          sta     CH_coldy,x
  365                     
  366  01:CE96  A9 03             lda     #3
  367  01:CE98  9D 00 2E          sta     CH_regist,x
  368                     
  369  01:CE9B  A9 01             lda     #1
  370  01:CE9D  9D 80 2E          sta     CH_damaged_class,x
  371                     
  372  01:CEA0  A9 0E             lda     #LOW(ENTank_move)
  373  01:CEA2  9D 00 29          sta     CH_procptrl,x
  374  01:CEA5  A9 D1             lda     #HIGH(ENTank_move)
  375  01:CEA7  9D 80 29          sta     CH_procptrh,x
  376                     
  377                     
  378  01:CEAA  DA                phx
  379  01:CEAB  A9 02             lda     #2
  380  01:CEAD  A0 00             ldy     #0
  381  01:CEAF  20 5D CC          jsr     convDirection2DxDy
  382  01:CEB2  FA                plx
  383                     
  384  01:CEB3  A5 38             lda     <z_dir_result_dx
  385  01:CEB5  9D 00 26          sta     CH_dxl,x
  386  01:CEB8  A5 39             lda     <z_dir_result_dx+1
  387  01:CEBA  9D 80 26          sta     CH_dxh,x
  388  01:CEBD  A5 3A             lda     <z_dir_result_dy
  389  01:CEBF  9D 00 27          sta     CH_dyl,x
  390  01:CEC2  A5 3B             lda     <z_dir_result_dy+1
  391  01:CEC4  9D 80 27          sta     CH_dyh,x
  392                     
  393  01:CEC7  60                rts
  394                     
  395  01:CEC8            ENBoat_v_sub_init:
  396                     ;        stz     CH_xl,x
  397                     ;        lda     #(336+$20)/2
  398                     ;        sta     CH_xh,x
  399                     ;        stz     CH_yl,x
  400                     ;        lda     <z_frame
  401                     ;        asl     a
  402                     ;        sta     CH_yh,x
  403                     
  404  01:CEC8  A9 C8             lda     #LOW(((spr_pattern2_boatv_01-spr_pattern2)/2+$5000)/32)
  405  01:CECA  9D 00 2A          sta     CH_sprpatl,x
  406  01:CECD  A9 02             lda     #HIGH(((spr_pattern2_boatv_01-spr_pattern2)/2+$5000)/32)
  407  01:CECF  9D 80 2A          sta     CH_sprpath,x
  408                     
  409  01:CED2  A9 85             lda     #$85
  410  01:CED4  9D 00 2B          sta     CH_spratrl,x
  411  01:CED7  A9 10             lda     #$10
  412  01:CED9  9D 80 2B          sta     CH_spratrh,x
  413                     
  414  01:CEDC  A9 04             lda     #8/2
  415  01:CEDE  9D 00 2C          sta     CH_sprdx,x
  416  01:CEE1  A9 08             lda     #16/2
  417  01:CEE3  9D 80 2C          sta     CH_sprdy,x
  418                     
  419                     ;        lda     #8
  420                     ;        sta     CH_coldx,x
  421                     ;        sta     CH_coldy,x
  422                     
  423                      ;       lda     #4
  424                      ;       sta     CH_regist,x
  425                     
  426                      ;       lda     #1
  427                      ;       sta     CH_damaged_class,x
  428                     
  429  01:CEE6  A9 1B             lda     #LOW(ENBoat_v_sub_move)
  430  01:CEE8  9D 00 29          sta     CH_procptrl,x
  431  01:CEEB  A9 D3             lda     #HIGH(ENBoat_v_sub_move)
  432  01:CEED  9D 80 29          sta     CH_procptrh,x
  433                     
  434  01:CEF0  60                rts
  435                     
  436                     
  437  01:CEF1            ENBoat_v_Turret_init:
  438  01:CEF1  BC 00 31          ldy     CH_grp_parent,x
  439                     
  440  01:CEF4  B9 00 24          lda     CH_xl,y
  441  01:CEF7  9D 00 24          sta     CH_xl,x
  442  01:CEFA  B9 80 24          lda     CH_xh,y
  443  01:CEFD  9D 80 24          sta     CH_xh,x
  444  01:CF00  B9 00 25          lda     CH_yl,y
  445  01:CF03  9D 00 25          sta     CH_yl,x
  446  01:CF06  B9 80 25          lda     CH_yh,y
  447  01:CF09  9D 80 25          sta     CH_yh,x
  448                     
  449  01:CF0C  A9 D0             lda     #LOW(((spr_pattern2_boatturret_00-spr_pattern2)/2+$5000)/32)
  450  01:CF0E  9D 00 2A          sta     CH_sprpatl,x
  451  01:CF11  A9 02             lda     #HIGH(((spr_pattern2_boatturret_00-spr_pattern2)/2+$5000)/32)
  452  01:CF13  9D 80 2A          sta     CH_sprpath,x
  453                     
  454  01:CF16  A9 85             lda     #$85
  455  01:CF18  9D 00 2B          sta     CH_spratrl,x
  456  01:CF1B  A9 11             lda     #$11
  457  01:CF1D  9D 80 2B          sta     CH_spratrh,x
  458                     
  459  01:CF20  A9 08             lda     #16/2
  460  01:CF22  9D 00 2C          sta     CH_sprdx,x
  461  01:CF25  9D 80 2C          sta     CH_sprdy,x
  462                     
  463                     ;        lda     #0
  464                     ;        sta     CH_coldx,x
  465                     ;        sta     CH_coldy,x
  466                     
  467  01:CF28  A9 37             lda     #LOW(ENBoatTurret_move)
  468  01:CF2A  9D 00 29          sta     CH_procptrl,x
  469  01:CF2D  A9 D2             lda     #HIGH(ENBoatTurret_move)
  470  01:CF2F  9D 80 29          sta     CH_procptrh,x
  471                     
  472  01:CF32  A9 00             lda     #0
  473  01:CF34  9D 00 28          sta     CH_dir,x
  474                     
  475  01:CF37  98                tya
  476  01:CF38  9D 00 2F          sta     CH_var0,x               ;Êà¶ËªäÊú¨‰Ωì„ÅÆ„Ç≠„É£„É©„ÇØ„ÇøÁï™Âè∑
  477                     
  478  01:CF3B  60                rts
  479                     
  480                     ;-----
  481                     
  482  01:CF3C            ENBig_main_init:
  483  01:CF3C  9E 00 24          stz     CH_xl,x
  484  01:CF3F  A9 CC             lda     #(336+$48)/2
  485  01:CF41  9D 80 24          sta     CH_xh,x
  486  01:CF44  9E 00 25          stz     CH_yl,x
  487                     ;        lda     <z_frame
  488                     ;        asl     a
  489  01:CF47  A9 60             lda     #(64+128)/2
  490  01:CF49  9D 80 25          sta     CH_yh,x
  491                     
  492  01:CF4C  A9 90             lda     #LOW(((spr_pattern2_big_02-spr_pattern2)/2+$5000)/32)
  493  01:CF4E  9D 00 2A          sta     CH_sprpatl,x
  494  01:CF51  A9 02             lda     #HIGH(((spr_pattern2_big_02-spr_pattern2)/2+$5000)/32)
  495  01:CF53  9D 80 2A          sta     CH_sprpath,x
  496                     
  497  01:CF56  A9 83             lda     #$83
  498  01:CF58  9D 00 2B          sta     CH_spratrl,x
  499  01:CF5B  A9 11             lda     #$11
  500  01:CF5D  9D 80 2B          sta     CH_spratrh,x
  501                     
  502  01:CF60  A9 08             lda     #16/2
  503  01:CF62  9D 00 2C          sta     CH_sprdx,x
  504  01:CF65  9D 80 2C          sta     CH_sprdy,x
  505                     
  506  01:CF68  A9 08             lda     #16/2
  507  01:CF6A  9D 00 2D          sta     CH_coldx,x
  508  01:CF6D  A9 14             lda     #40/2
  509  01:CF6F  9D 80 2D          sta     CH_coldy,x
  510                     
  511  01:CF72  A9 50             lda     #80
  512  01:CF74  9D 00 2E          sta     CH_regist,x
  513                     
  514  01:CF77  A9 02             lda     #2
  515  01:CF79  9D 80 2E          sta     CH_damaged_class,x
  516                     
  517  01:CF7C  A9 3C             lda     #LOW(ENBig_main_move)
  518  01:CF7E  9D 00 29          sta     CH_procptrl,x
  519  01:CF81  A9 D3             lda     #HIGH(ENBig_main_move)
  520  01:CF83  9D 80 29          sta     CH_procptrh,x
  521                     
  522  01:CF86  A9 00             lda     #0
  523  01:CF88  9D 00 28          sta     CH_dir,x
  524                     
  525  01:CF8B  A9 80             lda     #$80
  526  01:CF8D  9D 00 26          sta     CH_dxl,x
  527  01:CF90  A9 FF             lda     #$ff
  528  01:CF92  9D 80 26          sta     CH_dxh,x
  529  01:CF95  A9 00             lda     #0
  530  01:CF97  9D 00 27          sta     CH_dyl,x
  531  01:CF9A  9D 80 27          sta     CH_dyh,x
  532                     
  533  01:CF9D  60                rts
  534                     
  535  01:CF9E            ENBig_sub0_init:
  536  01:CF9E  9E 00 24          stz     CH_xl,x
  537  01:CFA1  A9 B8             lda     #(336+$20)/2
  538  01:CFA3  9D 80 24          sta     CH_xh,x
  539  01:CFA6  9E 00 25          stz     CH_yl,x
  540  01:CFA9  A5 27             lda     <z_frame
  541  01:CFAB  0A                asl     a
  542  01:CFAC  9D 80 25          sta     CH_yh,x
  543                     
  544  01:CFAF  A9 80             lda     #LOW(((spr_pattern2_big_00-spr_pattern2)/2+$5000)/32)
  545  01:CFB1  9D 00 2A          sta     CH_sprpatl,x
  546  01:CFB4  A9 02             lda     #HIGH(((spr_pattern2_big_00-spr_pattern2)/2+$5000)/32)
  547  01:CFB6  9D 80 2A          sta     CH_sprpath,x
  548                     
  549  01:CFB9  A9 83             lda     #$83
  550  01:CFBB  9D 00 2B          sta     CH_spratrl,x
  551  01:CFBE  A9 11             lda     #$11
  552  01:CFC0  9D 80 2B          sta     CH_spratrh,x
  553                     
  554  01:CFC3  A9 08             lda     #16/2
  555  01:CFC5  9D 00 2C          sta     CH_sprdx,x
  556  01:CFC8  9D 80 2C          sta     CH_sprdy,x
  557                     
  558  01:CFCB  A9 00             lda     #0
  559  01:CFCD  9D 00 2D          sta     CH_coldx,x
  560  01:CFD0  9D 80 2D          sta     CH_coldy,x
  561                     
  562  01:CFD3  A9 9B             lda     #LOW(ENBig_sub0_move)
  563  01:CFD5  9D 00 29          sta     CH_procptrl,x
  564  01:CFD8  A9 D3             lda     #HIGH(ENBig_sub0_move)
  565  01:CFDA  9D 80 29          sta     CH_procptrh,x
  566                     
  567  01:CFDD  A9 00             lda     #0
  568  01:CFDF  9D 00 28          sta     CH_dir,x
  569                     
  570  01:CFE2  60                rts
  571                     
  572  01:CFE3            ENBig_sub1_init:
  573  01:CFE3  9E 00 24          stz     CH_xl,x
  574  01:CFE6  A9 B8             lda     #(336+$20)/2
  575  01:CFE8  9D 80 24          sta     CH_xh,x
  576  01:CFEB  9E 00 25          stz     CH_yl,x
  577  01:CFEE  A5 27             lda     <z_frame
  578  01:CFF0  0A                asl     a
  579  01:CFF1  9D 80 25          sta     CH_yh,x
  580                     
  581  01:CFF4  A9 80             lda     #LOW(((spr_pattern2_big_00-spr_pattern2)/2+$5000)/32)
  582  01:CFF6  9D 00 2A          sta     CH_sprpatl,x
  583  01:CFF9  A9 02             lda     #HIGH(((spr_pattern2_big_00-spr_pattern2)/2+$5000)/32)
  584  01:CFFB  9D 80 2A          sta     CH_sprpath,x
  585                     
  586  01:CFFE  A9 83             lda     #$83
  587  01:D000  9D 00 2B          sta     CH_spratrl,x
  588  01:D003  A9 91             lda     #$91
  589  01:D005  9D 80 2B          sta     CH_spratrh,x
  590                     
  591  01:D008  A9 08             lda     #16/2
  592  01:D00A  9D 00 2C          sta     CH_sprdx,x
  593  01:D00D  9D 80 2C          sta     CH_sprdy,x
  594                     
  595  01:D010  A9 00             lda     #0
  596  01:D012  9D 00 2D          sta     CH_coldx,x
  597  01:D015  9D 80 2D          sta     CH_coldy,x
  598                     
  599  01:D018  A9 BF             lda     #LOW(ENBig_sub1_move)
  600  01:D01A  9D 00 29          sta     CH_procptrl,x
  601  01:D01D  A9 D3             lda     #HIGH(ENBig_sub1_move)
  602  01:D01F  9D 80 29          sta     CH_procptrh,x
  603                     
  604  01:D022  A9 00             lda     #0
  605  01:D024  9D 00 28          sta     CH_dir,x
  606                     
  607  01:D027  60                rts
  608                     
  609  01:D028            ENBig_sub2_init:
  610  01:D028  9E 00 24          stz     CH_xl,x
  611  01:D02B  A9 B8             lda     #(336+$20)/2
  612  01:D02D  9D 80 24          sta     CH_xh,x
  613  01:D030  9E 00 25          stz     CH_yl,x
  614  01:D033  A5 27             lda     <z_frame
  615  01:D035  0A                asl     a
  616  01:D036  9D 80 25          sta     CH_yh,x
  617                     
  618  01:D039  A9 88             lda     #LOW(((spr_pattern2_big_01-spr_pattern2)/2+$5000)/32)
  619  01:D03B  9D 00 2A          sta     CH_sprpatl,x
  620  01:D03E  A9 02             lda     #HIGH(((spr_pattern2_big_01-spr_pattern2)/2+$5000)/32)
  621  01:D040  9D 80 2A          sta     CH_sprpath,x
  622                     
  623  01:D043  A9 83             lda     #$83
  624  01:D045  9D 00 2B          sta     CH_spratrl,x
  625  01:D048  A9 11             lda     #$11
  626  01:D04A  9D 80 2B          sta     CH_spratrh,x
  627                     
  628  01:D04D  A9 08             lda     #16/2
  629  01:D04F  9D 00 2C          sta     CH_sprdx,x
  630  01:D052  9D 80 2C          sta     CH_sprdy,x
  631                     
  632  01:D055  A9 00             lda     #0
  633  01:D057  9D 00 2D          sta     CH_coldx,x
  634  01:D05A  9D 80 2D          sta     CH_coldy,x
  635                     
  636  01:D05D  A9 E3             lda     #LOW(ENBig_sub2_move)
  637  01:D05F  9D 00 29          sta     CH_procptrl,x
  638  01:D062  A9 D3             lda     #HIGH(ENBig_sub2_move)
  639  01:D064  9D 80 29          sta     CH_procptrh,x
  640                     
  641  01:D067  A9 00             lda     #0
  642  01:D069  9D 00 28          sta     CH_dir,x
  643                     
  644  01:D06C  60                rts
  645                     
  646  01:D06D            ENBig_sub3_init:
  647  01:D06D  9E 00 24          stz     CH_xl,x
  648  01:D070  A9 B8             lda     #(336+$20)/2
  649  01:D072  9D 80 24          sta     CH_xh,x
  650  01:D075  9E 00 25          stz     CH_yl,x
  651  01:D078  A5 27             lda     <z_frame
  652  01:D07A  0A                asl     a
  653  01:D07B  9D 80 25          sta     CH_yh,x
  654                     
  655  01:D07E  A9 88             lda     #LOW(((spr_pattern2_big_01-spr_pattern2)/2+$5000)/32)
  656  01:D080  9D 00 2A          sta     CH_sprpatl,x
  657  01:D083  A9 02             lda     #HIGH(((spr_pattern2_big_01-spr_pattern2)/2+$5000)/32)
  658  01:D085  9D 80 2A          sta     CH_sprpath,x
  659                     
  660  01:D088  A9 83             lda     #$83
  661  01:D08A  9D 00 2B          sta     CH_spratrl,x
  662  01:D08D  A9 91             lda     #$91
  663  01:D08F  9D 80 2B          sta     CH_spratrh,x
  664                     
  665  01:D092  A9 08             lda     #16/2
  666  01:D094  9D 00 2C          sta     CH_sprdx,x
  667  01:D097  9D 80 2C          sta     CH_sprdy,x
  668                     
  669  01:D09A  A9 00             lda     #0
  670  01:D09C  9D 00 2D          sta     CH_coldx,x
  671  01:D09F  9D 80 2D          sta     CH_coldy,x
  672                     
  673  01:D0A2  A9 07             lda     #LOW(ENBig_sub3_move)
  674  01:D0A4  9D 00 29          sta     CH_procptrl,x
  675  01:D0A7  A9 D4             lda     #HIGH(ENBig_sub3_move)
  676  01:D0A9  9D 80 29          sta     CH_procptrh,x
  677                     
  678  01:D0AC  A9 00             lda     #0
  679  01:D0AE  9D 00 28          sta     CH_dir,x
  680                     
  681  01:D0B1  60                rts
  682                     
  683                     ;----------------------------------------------------------------
  684                     
  685                     ;
  686                     ; @experimental
  687                     ;  „ÉÄ„É°„Éº„Ç∏„ÇíÂèó„Åë„ÅüÊôÇ„ÅÆÂá¶ÁêÜ
  688                     ;
  689  01:D0B2            ENTank_damaged:
  690  01:D0B2  BD 00 2E          lda     CH_regist,x
  691  01:D0B5  C9 03             cmp     #2+1
  692  01:D0B7  D0 13             bne     .ret
  693                                     ; Á†≤Â°î„ÇíÊ∂à„Åô
  694  01:D0B9  BD 80 30          lda     CH_grp_child,x
  695                     ;        lda     CH_var0,x
  696  01:D0BC  F0 0E             beq     .ret
  697                     
  698  01:D0BE  48                pha
  699  01:D0BF  DA                phx
  700  01:D0C0  AA                tax
  701  01:D0C1  20 F1 D6          jsr     EFcreateExplosion
  702  01:D0C4  FA                plx
  703  01:D0C5  68                pla
  704                     
  705  01:D0C6  DA                phx
  706  01:D0C7  AA                tax
  707  01:D0C8  20 2C C3          jsr     CDRVremoveChr
  708  01:D0CB  FA                plx
  709                     ;        stz     CH_var0,x
  710  01:D0CC            .ret:
  711  01:D0CC  60                rts
  712                     
  713                     
  714                     
  715  01:D0CD            ENBig_damaged:
  716  01:D0CD  BD 00 2E          lda     CH_regist,x
  717  01:D0D0  C9 40             cmp     #64
  718  01:D0D2  F0 05             beq     .fire1
  719  01:D0D4  C9 20             cmp     #32
  720  01:D0D6  F0 05             beq     .fire2
  721  01:D0D8  60                rts
  722  01:D0D9            .fire1:
  723  01:D0D9  A9 F8             lda     #-8
  724  01:D0DB  80 02             bra     .fire
  725  01:D0DD            .fire2:
  726  01:D0DD  A9 08             lda     #8
  727  01:D0DF            .fire:
  728  01:D0DF  85 14             sta     <z_tmp3
  729  01:D0E1  20 70 D7          jsr     EFcreateDamagedFire
  730  01:D0E4  60                rts
  731                     
  732  01:D0E5            EN_damaged_dummy:
  733  01:D0E5  60                rts
  734                     
  735  01:D0E6            EN_dead_dummy:
  736  01:D0E6            ENTank_dead:
  737  01:D0E6  20 F1 D6          jsr     EFcreateExplosion
  738  01:D0E9  20 2C C3          jsr     CDRVremoveChr
  739  01:D0EC  60                rts
  740                     
  741  01:D0ED            ENBig_dead:
  742                     
  743  01:D0ED  DA                phx
  744  01:D0EE  BD 80 24          lda     CH_xh,x
  745  01:D0F1  85 3F             sta     <z_en_init_xh
  746  01:D0F3  BD 80 25          lda     CH_yh,x
  747  01:D0F6  85 41             sta     <z_en_init_yh
  748  01:D0F8  A0 02             ldy     #2
  749  01:D0FA  20 F8 CC          jsr     ENcreate_Ex
  750  01:D0FD  FA                plx
  751                     ;        jsr     EFcreateExplosion
  752  01:D0FE  20 2C C3          jsr     CDRVremoveChr
  753                     
  754  01:D101  60                rts
  755                     
  756                     
  757                     
  758  01:D102            EN_damaged_procl:
  759  01:D102  E5                .db     LOW(EN_damaged_dummy)
  760                     ;        .db     LOW(EN_damaged_dummy)
  761  01:D103  B2                .db     LOW(ENTank_damaged)
  762  01:D104  CD                .db     LOW(ENBig_damaged)
  763  01:D105            EN_damaged_proch:
  764  01:D105  D0                .db     HIGH(EN_damaged_dummy)
  765                     ;        .db     HIGH(EN_damaged_dummy)
  766  01:D106  D0                .db     HIGH(ENTank_damaged)
  767  01:D107  D0                .db     HIGH(ENBig_damaged)
  768                     
  769  01:D108            EN_dead_procl:
  770  01:D108  E6                .db     LOW(EN_dead_dummy)
  771  01:D109  E6                .db     LOW(ENTank_dead)
  772  01:D10A  ED                .db     LOW(ENBig_dead)
  773  01:D10B            EN_dead_proch:
  774  01:D10B  D0                .db     HIGH(EN_dead_dummy)
  775  01:D10C  D0                .db     HIGH(ENTank_dead)
  776  01:D10D  D0                .db     HIGH(ENBig_dead)
  777                     
  778                     
  779                     
  780                     
  781  01:D10E            ENTank_move:
  782  01:D10E  BD 00 24          lda     CH_xl,x
  783  01:D111  18                clc
  784  01:D112  7D 00 26          adc     CH_dxl,x
  785  01:D115  9D 00 24          sta     CH_xl,x
  786  01:D118  BD 80 24          lda     CH_xh,x
  787  01:D11B  7D 80 26          adc     CH_dxh,x
  788  01:D11E  9D 80 24          sta     CH_xh,x
  789                     
  790  01:D121  C9 B8             cmp     #(336+32)/2
  791  01:D123  B0 2A             bcs     .out
  792  01:D125  C9 08             cmp     #16/2
  793  01:D127  90 26             bcc     .out
  794                     
  795  01:D129  BD 00 25          lda     CH_yl,x
  796  01:D12C  18                clc
  797  01:D12D  7D 00 27          adc     CH_dyl,x
  798  01:D130  9D 00 25          sta     CH_yl,x
  799  01:D133  BD 80 25          lda     CH_yh,x
  800  01:D136  7D 80 27          adc     CH_dyh,x
  801  01:D139  9D 80 25          sta     CH_yh,x
  802                     
  803  01:D13C  BD 00 25          lda     CH_yl,x
  804  01:D13F  18                clc
  805  01:D140  65 0F             adc     <z_d_scryl
  806  01:D142  9D 00 25          sta     CH_yl,x
  807  01:D145  BD 80 25          lda     CH_yh,x
  808  01:D148  65 10             adc     <z_d_scryh
  809  01:D14A  9D 80 25          sta     CH_yh,x
  810                     
  811                     ;        cmp     #(240+64)/2
  812                     ;        bcs     .out
  813                     ;        cmp     #64/2
  814                     ;        bcc     .out
  815                     
  816  01:D14D  18                clc
  817  01:D14E  60                rts
  818                                     ; out of screen
  819  01:D14F            .out:
  820                             ;jsr     .destroy
  821  01:D14F  38                sec
  822  01:D150  60                rts
  823                     
  824           0000              .if     0
  836                             .endif
  837                     
  838  01:D151            ENdead:
  839  01:D151  38                sec
  840  01:D152  60                rts
  841                     
  842                     
  843  01:D153            ENTankTurret_move:
  844  01:D153  BD 00 31          lda     CH_grp_parent,x
  845                     
  846                     ;        lda     CH_var0,x
  847  01:D156  A8                tay
  848                     
  849  01:D157  B9 00 24          lda     CH_xl,y
  850  01:D15A  9D 00 24          sta     CH_xl,x
  851  01:D15D  B9 80 24          lda     CH_xh,y
  852  01:D160  9D 80 24          sta     CH_xh,x
  853  01:D163  B9 00 25          lda     CH_yl,y
  854  01:D166  9D 00 25          sta     CH_yl,x
  855  01:D169  B9 80 25          lda     CH_yh,y
  856  01:D16C  9D 80 25          sta     CH_yh,x
  857                     
  858                                             ; rotate
  859  01:D16F  83 07 27          tst     #$07,<z_frame
  860  01:D172  D0 4F             bne     .skip
  861                     
  862  01:D174  AC F0 34          ldy     PL_chr
  863  01:D177  B9 80 24          lda     CH_xh,y
  864  01:D17A  85 2C             sta     <z_dir_targetx
  865  01:D17C  B9 80 25          lda     CH_yh,y
  866  01:D17F  85 2D             sta     <z_dir_targety
  867  01:D181  BD 80 24          lda     CH_xh,x
  868  01:D184  85 2E             sta     <z_dir_sourcex
  869  01:D186  BD 80 25          lda     CH_yh,x
  870  01:D189  85 2F             sta     <z_dir_sourcey
  871                     
  872  01:D18B  20 13 CB          jsr     getDirection
  873                     
  874  01:D18E  38                sec
  875  01:D18F  FD 00 28          sbc     CH_dir,x
  876  01:D192  F0 2F             beq     .skip
  877  01:D194  29 1F             and     #$1f
  878  01:D196  C9 10             cmp     #$10
  879  01:D198  90 06             bcc     .inc
  880  01:D19A  BD 00 28          lda     CH_dir,x
  881  01:D19D  3A                dec     a
  882  01:D19E  80 04             bra     .00
  883  01:D1A0  BD 00 28  .inc:   lda     CH_dir,x
  884  01:D1A3  1A                inc     a
  885  01:D1A4            .00:
  886  01:D1A4  29 1F             and     #$1f
  887  01:D1A6  9D 00 28          sta     CH_dir,x
  888                     
  889  01:D1A9  4A                lsr     a
  890  01:D1AA  A8                tay
  891                     
  892  01:D1AB  B9 F7 D1          lda     ENTankTurretPatternLow,y
  893  01:D1AE  9D 00 2A          sta     CH_sprpatl,x
  894  01:D1B1  B9 07 D2          lda     ENTankTurretPatternHigh,y
  895  01:D1B4  9D 80 2A          sta     CH_sprpath,x
  896                     
  897  01:D1B7  B9 17 D2          lda     ENTankTurretAttributeLow,y
  898  01:D1BA  9D 00 2B          sta     CH_spratrl,x
  899  01:D1BD  B9 27 D2          lda     ENTankTurretAttributeHigh,y
  900  01:D1C0  9D 80 2B          sta     CH_spratrh,x
  901                     
  902  01:D1C3            .skip:
  903                     
  904                                             ; shoot
  905  01:D1C3  83 0F 27          tst     #$0f,<z_frame
  906  01:D1C6  D0 2D             bne     .skipeb
  907                     
  908  01:D1C8  AC F0 34          ldy     PL_chr
  909  01:D1CB  B9 80 24          lda     CH_xh,y
  910  01:D1CE  85 2C             sta     <z_dir_targetx
  911  01:D1D0  B9 80 25          lda     CH_yh,y
  912  01:D1D3  85 2D             sta     <z_dir_targety
  913  01:D1D5  BD 80 24          lda     CH_xh,x
  914  01:D1D8  85 2E             sta     <z_dir_sourcex
  915  01:D1DA  BD 80 25          lda     CH_yh,x
  916  01:D1DD  85 2F             sta     <z_dir_sourcey
  917                     
  918  01:D1DF  20 13 CB          jsr     getDirection
  919                     
  920  01:D1E2  38                sec
  921  01:D1E3  FD 00 28          sbc     CH_dir,x
  922  01:D1E6  1A                inc     a
  923  01:D1E7  C9 03             cmp     #3
  924  01:D1E9  B0 0A             bcs     .skipeb
  925  01:D1EB  64 14             stz     <z_tmp3
  926  01:D1ED  64 15             stz     <z_tmp4
  927  01:D1EF  BC 00 28          ldy     CH_dir,x
  928  01:D1F2  20 58 D5          jsr     EB_shoot
  929  01:D1F5            .skipeb:
  930                     
  931  01:D1F5  18                clc
  932  01:D1F6  60                rts
  933                     
  934                     
  935                     
  936                     ; Êà¶Ëªä„ÅÆÁ†≤Â°î„ÅÆ„Çπ„Éó„É©„Ç§„Éà„ÉÜ„Éº„Éñ„É´
  937  01:D1F7            ENTankTurretPatternLow:
  938  01:D1F7  20                .db     LOW(((spr_pattern_turret00-spr_pattern)/2+$4000)/32)
  939  01:D1F8  28                .db     LOW(((spr_pattern_turret01-spr_pattern)/2+$4000)/32)
  940  01:D1F9  30                .db     LOW(((spr_pattern_turret02-spr_pattern)/2+$4000)/32)
  941  01:D1FA  38                .db     LOW(((spr_pattern_turret03-spr_pattern)/2+$4000)/32)
  942  01:D1FB  40                .db     LOW(((spr_pattern_turret04-spr_pattern)/2+$4000)/32)
  943  01:D1FC  38                .db     LOW(((spr_pattern_turret03-spr_pattern)/2+$4000)/32)
  944  01:D1FD  30                .db     LOW(((spr_pattern_turret02-spr_pattern)/2+$4000)/32)
  945  01:D1FE  28                .db     LOW(((spr_pattern_turret01-spr_pattern)/2+$4000)/32)
  946  01:D1FF  20                .db     LOW(((spr_pattern_turret00-spr_pattern)/2+$4000)/32)
  947  01:D200  28                .db     LOW(((spr_pattern_turret01-spr_pattern)/2+$4000)/32)
  948  01:D201  30                .db     LOW(((spr_pattern_turret02-spr_pattern)/2+$4000)/32)
  949  01:D202  38                .db     LOW(((spr_pattern_turret03-spr_pattern)/2+$4000)/32)
  950  01:D203  40                .db     LOW(((spr_pattern_turret04-spr_pattern)/2+$4000)/32)
  951  01:D204  38                .db     LOW(((spr_pattern_turret03-spr_pattern)/2+$4000)/32)
  952  01:D205  30                .db     LOW(((spr_pattern_turret02-spr_pattern)/2+$4000)/32)
  953  01:D206  28                .db     LOW(((spr_pattern_turret01-spr_pattern)/2+$4000)/32)
  954  01:D207            ENTankTurretPatternHigh:
  955  01:D207  02                .db     HIGH(((spr_pattern_turret00-spr_pattern)/2+$4000)/32)
  956  01:D208  02                .db     HIGH(((spr_pattern_turret01-spr_pattern)/2+$4000)/32)
  957  01:D209  02                .db     HIGH(((spr_pattern_turret02-spr_pattern)/2+$4000)/32)
  958  01:D20A  02                .db     HIGH(((spr_pattern_turret03-spr_pattern)/2+$4000)/32)
  959  01:D20B  02                .db     HIGH(((spr_pattern_turret04-spr_pattern)/2+$4000)/32)
  960  01:D20C  02                .db     HIGH(((spr_pattern_turret03-spr_pattern)/2+$4000)/32)
  961  01:D20D  02                .db     HIGH(((spr_pattern_turret02-spr_pattern)/2+$4000)/32)
  962  01:D20E  02                .db     HIGH(((spr_pattern_turret01-spr_pattern)/2+$4000)/32)
  963  01:D20F  02                .db     HIGH(((spr_pattern_turret00-spr_pattern)/2+$4000)/32)
  964  01:D210  02                .db     HIGH(((spr_pattern_turret01-spr_pattern)/2+$4000)/32)
  965  01:D211  02                .db     HIGH(((spr_pattern_turret02-spr_pattern)/2+$4000)/32)
  966  01:D212  02                .db     HIGH(((spr_pattern_turret03-spr_pattern)/2+$4000)/32)
  967  01:D213  02                .db     HIGH(((spr_pattern_turret04-spr_pattern)/2+$4000)/32)
  968  01:D214  02                .db     HIGH(((spr_pattern_turret03-spr_pattern)/2+$4000)/32)
  969  01:D215  02                .db     HIGH(((spr_pattern_turret02-spr_pattern)/2+$4000)/32)
  970  01:D216  02                .db     HIGH(((spr_pattern_turret01-spr_pattern)/2+$4000)/32)
  971  01:D217            ENTankTurretAttributeLow:
  972  01:D217  83 83 83          .db     $83,$83,$83,$83,$83,$83,$83,$83,$83,$83,$83,$83,$83,$83,$83,$83
       01:D21A  83 83 83  
       01:D21D  83 83 83  
       01:D220  83 83 83  
       01:D223  83 83 83  
       01:D226  83        
  973  01:D227            ENTankTurretAttributeHigh:
  974  01:D227  11 11 11          .db     $11,$11,$11,$11,$11,$19,$19,$19,$19,$99,$99,$99,$91,$91,$91,$91
       01:D22A  11 11 19  
       01:D22D  19 19 19  
       01:D230  99 99 99  
       01:D233  91 91 91  
       01:D236  91        
  975                     
  976                     ;----
  977                     
  978  01:D237            ENBoatTurret_move:
  979  01:D237  BD 00 31          lda     CH_grp_parent,x
  980  01:D23A  A8                tay
  981                     
  982  01:D23B  B9 00 24          lda     CH_xl,y
  983  01:D23E  9D 00 24          sta     CH_xl,x
  984  01:D241  B9 80 24          lda     CH_xh,y
  985  01:D244  9D 80 24          sta     CH_xh,x
  986  01:D247  B9 00 25          lda     CH_yl,y
  987  01:D24A  9D 00 25          sta     CH_yl,x
  988  01:D24D  B9 80 25          lda     CH_yh,y
  989  01:D250  9D 80 25          sta     CH_yh,x
  990                     
  991                                             ; rotate
  992  01:D253  83 0F 27          tst     #$0f,<z_frame
  993  01:D256  D0 4F             bne     .skip
  994                     
  995  01:D258  AC F0 34          ldy     PL_chr
  996  01:D25B  B9 80 24          lda     CH_xh,y
  997  01:D25E  85 2C             sta     <z_dir_targetx
  998  01:D260  B9 80 25          lda     CH_yh,y
  999  01:D263  85 2D             sta     <z_dir_targety
 1000  01:D265  BD 80 24          lda     CH_xh,x
 1001  01:D268  85 2E             sta     <z_dir_sourcex
 1002  01:D26A  BD 80 25          lda     CH_yh,x
 1003  01:D26D  85 2F             sta     <z_dir_sourcey
 1004                     
 1005  01:D26F  20 13 CB          jsr     getDirection
 1006                     
 1007  01:D272  38                sec
 1008  01:D273  FD 00 28          sbc     CH_dir,x
 1009  01:D276  F0 2F             beq     .skip
 1010  01:D278  29 1F             and     #$1f
 1011  01:D27A  C9 10             cmp     #$10
 1012  01:D27C  90 06             bcc     .inc
 1013  01:D27E  BD 00 28          lda     CH_dir,x
 1014  01:D281  3A                dec     a
 1015  01:D282  80 04             bra     .00
 1016  01:D284  BD 00 28  .inc:   lda     CH_dir,x
 1017  01:D287  1A                inc     a
 1018  01:D288            .00:
 1019  01:D288  29 1F             and     #$1f
 1020  01:D28A  9D 00 28          sta     CH_dir,x
 1021                     
 1022  01:D28D  4A                lsr     a
 1023  01:D28E  A8                tay
 1024                     
 1025  01:D28F  B9 DB D2          lda     ENBoatTurretPatternLow,y
 1026  01:D292  9D 00 2A          sta     CH_sprpatl,x
 1027  01:D295  B9 EB D2          lda     ENBoatTurretPatternHigh,y
 1028  01:D298  9D 80 2A          sta     CH_sprpath,x
 1029                     
 1030  01:D29B  B9 FB D2          lda     ENBoatTurretAttributeLow,y
 1031  01:D29E  9D 00 2B          sta     CH_spratrl,x
 1032  01:D2A1  B9 0B D3          lda     ENBoatTurretAttributeHigh,y
 1033  01:D2A4  9D 80 2B          sta     CH_spratrh,x
 1034                     
 1035  01:D2A7            .skip:
 1036                     
 1037                                             ; shoot
 1038  01:D2A7  83 0F 27          tst     #$0f,<z_frame
 1039  01:D2AA  D0 2D             bne     .skipeb
 1040                     
 1041  01:D2AC  AC F0 34          ldy     PL_chr
 1042  01:D2AF  B9 80 24          lda     CH_xh,y
 1043  01:D2B2  85 2C             sta     <z_dir_targetx
 1044  01:D2B4  B9 80 25          lda     CH_yh,y
 1045  01:D2B7  85 2D             sta     <z_dir_targety
 1046  01:D2B9  BD 80 24          lda     CH_xh,x
 1047  01:D2BC  85 2E             sta     <z_dir_sourcex
 1048  01:D2BE  BD 80 25          lda     CH_yh,x
 1049  01:D2C1  85 2F             sta     <z_dir_sourcey
 1050                     
 1051  01:D2C3  20 13 CB          jsr     getDirection
 1052                     
 1053  01:D2C6  38                sec
 1054  01:D2C7  FD 00 28          sbc     CH_dir,x
 1055  01:D2CA  1A                inc     a
 1056  01:D2CB  C9 03             cmp     #3
 1057  01:D2CD  B0 0A             bcs     .skipeb
 1058  01:D2CF  64 14             stz     <z_tmp3
 1059  01:D2D1  64 15             stz     <z_tmp4
 1060  01:D2D3  BC 00 28          ldy     CH_dir,x
 1061  01:D2D6  20 58 D5          jsr     EB_shoot
 1062  01:D2D9            .skipeb:
 1063                     
 1064  01:D2D9  18                clc
 1065  01:D2DA  60                rts
 1066                     
 1067                     
 1068                     
 1069                     ; Êà¶Ëªä„ÅÆÁ†≤Â°î„ÅÆ„Çπ„Éó„É©„Ç§„Éà„ÉÜ„Éº„Éñ„É´
 1070  01:D2DB            ENBoatTurretPatternLow:
 1071  01:D2DB  D0                .db     LOW(((spr_pattern2_boatturret_00-spr_pattern2)/2+$5000)/32)
 1072  01:D2DC  D8                .db     LOW(((spr_pattern2_boatturret_01-spr_pattern2)/2+$5000)/32)
 1073  01:D2DD  E0                .db     LOW(((spr_pattern2_boatturret_02-spr_pattern2)/2+$5000)/32)
 1074  01:D2DE  E8                .db     LOW(((spr_pattern2_boatturret_03-spr_pattern2)/2+$5000)/32)
 1075  01:D2DF  F0                .db     LOW(((spr_pattern2_boatturret_04-spr_pattern2)/2+$5000)/32)
 1076  01:D2E0  E8                .db     LOW(((spr_pattern2_boatturret_03-spr_pattern2)/2+$5000)/32)
 1077  01:D2E1  E0                .db     LOW(((spr_pattern2_boatturret_02-spr_pattern2)/2+$5000)/32)
 1078  01:D2E2  D8                .db     LOW(((spr_pattern2_boatturret_01-spr_pattern2)/2+$5000)/32)
 1079  01:D2E3  D0                .db     LOW(((spr_pattern2_boatturret_00-spr_pattern2)/2+$5000)/32)
 1080  01:D2E4  D8                .db     LOW(((spr_pattern2_boatturret_01-spr_pattern2)/2+$5000)/32)
 1081  01:D2E5  E0                .db     LOW(((spr_pattern2_boatturret_02-spr_pattern2)/2+$5000)/32)
 1082  01:D2E6  E8                .db     LOW(((spr_pattern2_boatturret_03-spr_pattern2)/2+$5000)/32)
 1083  01:D2E7  F0                .db     LOW(((spr_pattern2_boatturret_04-spr_pattern2)/2+$5000)/32)
 1084  01:D2E8  E8                .db     LOW(((spr_pattern2_boatturret_03-spr_pattern2)/2+$5000)/32)
 1085  01:D2E9  E0                .db     LOW(((spr_pattern2_boatturret_02-spr_pattern2)/2+$5000)/32)
 1086  01:D2EA  D8                .db     LOW(((spr_pattern2_boatturret_01-spr_pattern2)/2+$5000)/32)
 1087  01:D2EB            ENBoatTurretPatternHigh:
 1088  01:D2EB  02                .db     HIGH(((spr_pattern2_boatturret_00-spr_pattern2)/2+$5000)/32)
 1089  01:D2EC  02                .db     HIGH(((spr_pattern2_boatturret_01-spr_pattern2)/2+$5000)/32)
 1090  01:D2ED  02                .db     HIGH(((spr_pattern2_boatturret_02-spr_pattern2)/2+$5000)/32)
 1091  01:D2EE  02                .db     HIGH(((spr_pattern2_boatturret_03-spr_pattern2)/2+$5000)/32)
 1092  01:D2EF  02                .db     HIGH(((spr_pattern2_boatturret_04-spr_pattern2)/2+$5000)/32)
 1093  01:D2F0  02                .db     HIGH(((spr_pattern2_boatturret_03-spr_pattern2)/2+$5000)/32)
 1094  01:D2F1  02                .db     HIGH(((spr_pattern2_boatturret_02-spr_pattern2)/2+$5000)/32)
 1095  01:D2F2  02                .db     HIGH(((spr_pattern2_boatturret_01-spr_pattern2)/2+$5000)/32)
 1096  01:D2F3  02                .db     HIGH(((spr_pattern2_boatturret_00-spr_pattern2)/2+$5000)/32)
 1097  01:D2F4  02                .db     HIGH(((spr_pattern2_boatturret_01-spr_pattern2)/2+$5000)/32)
 1098  01:D2F5  02                .db     HIGH(((spr_pattern2_boatturret_02-spr_pattern2)/2+$5000)/32)
 1099  01:D2F6  02                .db     HIGH(((spr_pattern2_boatturret_03-spr_pattern2)/2+$5000)/32)
 1100  01:D2F7  02                .db     HIGH(((spr_pattern2_boatturret_04-spr_pattern2)/2+$5000)/32)
 1101  01:D2F8  02                .db     HIGH(((spr_pattern2_boatturret_03-spr_pattern2)/2+$5000)/32)
 1102  01:D2F9  02                .db     HIGH(((spr_pattern2_boatturret_02-spr_pattern2)/2+$5000)/32)
 1103  01:D2FA  02                .db     HIGH(((spr_pattern2_boatturret_01-spr_pattern2)/2+$5000)/32)
 1104  01:D2FB            ENBoatTurretAttributeLow:
 1105  01:D2FB  85 85 85          .db     $85,$85,$85,$85,$85,$85,$85,$85,$85,$85,$85,$85,$85,$85,$85,$85
       01:D2FE  85 85 85  
       01:D301  85 85 85  
       01:D304  85 85 85  
       01:D307  85 85 85  
       01:D30A  85        
 1106  01:D30B            ENBoatTurretAttributeHigh:
 1107  01:D30B  11 11 11          .db     $11,$11,$11,$11,$11,$19,$19,$19,$19,$99,$99,$99,$91,$91,$91,$91
       01:D30E  11 11 19  
       01:D311  19 19 19  
       01:D314  99 99 99  
       01:D317  91 91 91  
       01:D31A  91        
 1108                     
 1109                     
 1110  01:D31B            ENBoat_v_sub_move:
 1111  01:D31B  BD 00 31          lda     CH_grp_parent,x
 1112  01:D31E  A8                tay
 1113                     
 1114  01:D31F  B9 00 24          lda     CH_xl,y
 1115  01:D322  9D 00 24          sta     CH_xl,x
 1116  01:D325  B9 80 24          lda     CH_xh,y
 1117  01:D328  18                clc
 1118  01:D329  69 0A             adc     #10
 1119  01:D32B  9D 80 24          sta     CH_xh,x
 1120  01:D32E  B9 00 25          lda     CH_yl,y
 1121  01:D331  9D 00 25          sta     CH_yl,x
 1122  01:D334  B9 80 25          lda     CH_yh,y
 1123  01:D337  9D 80 25          sta     CH_yh,x
 1124                     
 1125  01:D33A  18                clc
 1126  01:D33B  60                rts
 1127                     
 1128                     ;-----------------------------
 1129                     
 1130  01:D33C            ENBig_main_move:
 1131  01:D33C  BD 00 24          lda     CH_xl,x
 1132  01:D33F  18                clc
 1133  01:D340  7D 00 26          adc     CH_dxl,x
 1134  01:D343  9D 00 24          sta     CH_xl,x
 1135  01:D346  BD 80 24          lda     CH_xh,x
 1136  01:D349  7D 80 26          adc     CH_dxh,x
 1137  01:D34C  9D 80 24          sta     CH_xh,x
 1138                     
 1139                     ;        cmp     #(336+32)/2
 1140                     ;        bcs     .out
 1141  01:D34F  C9 02             cmp     #4/2
 1142  01:D351  90 46             bcc     .out
 1143                     
 1144  01:D353  6F 27 13          bbr6    <z_frame,.right
 1145  01:D356  BD 00 25          lda     CH_yl,x
 1146  01:D359  38                sec
 1147  01:D35A  E9 40             sbc     #$40
 1148  01:D35C  9D 00 25          sta     CH_yl,x
 1149  01:D35F  BD 80 25          lda     CH_yh,x
 1150  01:D362  E9 00             sbc     #0
 1151  01:D364  9D 80 25          sta     CH_yh,x
 1152  01:D367  80 11             bra     .end
 1153  01:D369            .right:
 1154  01:D369  BD 00 25          lda     CH_yl,x
 1155  01:D36C  18                clc
 1156  01:D36D  69 40             adc     #$40
 1157  01:D36F  9D 00 25          sta     CH_yl,x
 1158  01:D372  BD 80 25          lda     CH_yh,x
 1159  01:D375  69 00             adc     #0
 1160  01:D377  9D 80 25          sta     CH_yh,x
 1161                     
 1162                     ;        cmp     #(240+64)/2
 1163                     ;        bcs     .out
 1164                     ;        cmp     #64/2
 1165                     ;        bcc     .out
 1166  01:D37A            .end
 1167                                             ; shoot
 1168  01:D37A  83 1F 27          tst     #$1f,<z_frame
 1169  01:D37D  D0 18             bne     .skipeb
 1170                     
 1171  01:D37F  A9 F8             lda     #-8
 1172  01:D381  85 14             sta     <z_tmp3
 1173  01:D383  A9 EC             lda     #-20
 1174  01:D385  85 15             sta     <z_tmp4
 1175  01:D387  C2                cly
 1176  01:D388  20 58 D5          jsr     EB_shoot
 1177                     
 1178  01:D38B  A9 F8             lda     #-8
 1179  01:D38D  85 14             sta     <z_tmp3
 1180  01:D38F  A9 08             lda     #8
 1181  01:D391  85 15             sta     <z_tmp4
 1182  01:D393  C2                cly
 1183  01:D394  20 58 D5          jsr     EB_shoot
 1184  01:D397            .skipeb:
 1185  01:D397  18                clc
 1186  01:D398  60                rts
 1187                                     ; out of screen
 1188  01:D399            .out:
 1189  01:D399  38                sec
 1190  01:D39A  60                rts
 1191                     
 1192                     
 1193  01:D39B            ENBig_sub0_move:
 1194                     ;        lda     CH_var0,x
 1195  01:D39B  BD 00 31          lda     CH_grp_parent,x
 1196  01:D39E  A8                tay
 1197                     
 1198  01:D39F  B9 00 24          lda     CH_xl,y
 1199  01:D3A2  9D 00 24          sta     CH_xl,x
 1200  01:D3A5  B9 80 24          lda     CH_xh,y
 1201  01:D3A8  38                sec
 1202  01:D3A9  E9 10             sbc     #32/2
 1203  01:D3AB  9D 80 24          sta     CH_xh,x
 1204  01:D3AE  B9 00 25          lda     CH_yl,y
 1205  01:D3B1  9D 00 25          sta     CH_yl,x
 1206  01:D3B4  B9 80 25          lda     CH_yh,y
 1207  01:D3B7  38                sec
 1208  01:D3B8  E9 0C             sbc     #24/2
 1209  01:D3BA  9D 80 25          sta     CH_yh,x
 1210                     
 1211  01:D3BD  18                clc
 1212  01:D3BE  60                rts
 1213                     
 1214  01:D3BF            ENBig_sub1_move:
 1215                     ;        lda     CH_var0,x
 1216  01:D3BF  BD 00 31          lda     CH_grp_parent,x
 1217  01:D3C2  A8                tay
 1218                     
 1219  01:D3C3  B9 00 24          lda     CH_xl,y
 1220  01:D3C6  9D 00 24          sta     CH_xl,x
 1221  01:D3C9  B9 80 24          lda     CH_xh,y
 1222  01:D3CC  38                sec
 1223  01:D3CD  E9 10             sbc     #32/2
 1224  01:D3CF  9D 80 24          sta     CH_xh,x
 1225  01:D3D2  B9 00 25          lda     CH_yl,y
 1226  01:D3D5  9D 00 25          sta     CH_yl,x
 1227  01:D3D8  B9 80 25          lda     CH_yh,y
 1228  01:D3DB  18                clc
 1229  01:D3DC  69 04             adc     #8/2
 1230  01:D3DE  9D 80 25          sta     CH_yh,x
 1231                     
 1232  01:D3E1  18                clc
 1233  01:D3E2  60                rts
 1234                     
 1235  01:D3E3            ENBig_sub2_move:
 1236                      ;       lda     CH_var0,x
 1237  01:D3E3  BD 00 31          lda     CH_grp_parent,x
 1238  01:D3E6  A8                tay
 1239                     
 1240  01:D3E7  B9 00 24          lda     CH_xl,y
 1241  01:D3EA  9D 00 24          sta     CH_xl,x
 1242  01:D3ED  B9 80 24          lda     CH_xh,y
 1243  01:D3F0  38                sec
 1244  01:D3F1  E9 04             sbc     #8/2
 1245  01:D3F3  9D 80 24          sta     CH_xh,x
 1246  01:D3F6  B9 00 25          lda     CH_yl,y
 1247  01:D3F9  9D 00 25          sta     CH_yl,x
 1248  01:D3FC  B9 80 25          lda     CH_yh,y
 1249  01:D3FF  38                sec
 1250  01:D400  E9 10             sbc     #32/2
 1251  01:D402  9D 80 25          sta     CH_yh,x
 1252                     
 1253  01:D405  18                clc
 1254  01:D406  60                rts
 1255                     
 1256  01:D407            ENBig_sub3_move:
 1257                     ;        lda     CH_var0,x
 1258  01:D407  BD 00 31          lda     CH_grp_parent,x
 1259  01:D40A  A8                tay
 1260                     
 1261  01:D40B  B9 00 24          lda     CH_xl,y
 1262  01:D40E  9D 00 24          sta     CH_xl,x
 1263  01:D411  B9 80 24          lda     CH_xh,y
 1264  01:D414  38                sec
 1265  01:D415  E9 04             sbc     #8/2
 1266  01:D417  9D 80 24          sta     CH_xh,x
 1267  01:D41A  B9 00 25          lda     CH_yl,y
 1268  01:D41D  9D 00 25          sta     CH_yl,x
 1269  01:D420  B9 80 25          lda     CH_yh,y
 1270  01:D423  18                clc
 1271  01:D424  69 08             adc     #16/2
 1272  01:D426  9D 80 25          sta     CH_yh,x
 1273                     
 1274  01:D429  18                clc
 1275  01:D42A  60                rts
 1276                     
 1277                     
 1278                     ;-----------------------------
 1279                     
 1280                     
 1281  01:D42B            ENBigExp_0_init:
 1282  01:D42B  9E 00 24          stz     CH_xl,x
 1283  01:D42E  A5 3F             lda     <z_en_init_xh
 1284  01:D430  38                sec
 1285  01:D431  E9 08             sbc     #8
 1286  01:D433  9D 80 24          sta     CH_xh,x
 1287  01:D436  9E 00 25          stz     CH_yl,x
 1288  01:D439  A5 41             lda     <z_en_init_yh
 1289  01:D43B  38                sec
 1290  01:D43C  E9 08             sbc     #8
 1291  01:D43E  9D 80 25          sta     CH_yh,x
 1292                     
 1293  01:D441  A9 98             lda     #LOW(((spr_pattern2_bigexp_00-spr_pattern2)/2+$5000)/32)
 1294  01:D443  9D 00 2A          sta     CH_sprpatl,x
 1295  01:D446  A9 02             lda     #HIGH(((spr_pattern2_bigexp_00-spr_pattern2)/2+$5000)/32)
 1296  01:D448  9D 80 2A          sta     CH_sprpath,x
 1297                     
 1298  01:D44B  A9 84             lda     #$84
 1299  01:D44D  9D 00 2B          sta     CH_spratrl,x
 1300  01:D450  A9 11             lda     #$11
 1301  01:D452  9D 80 2B          sta     CH_spratrh,x
 1302                     
 1303  01:D455  A9 2F             lda     #LOW(EFBigExp_0_move)
 1304  01:D457  9D 00 29          sta     CH_procptrl,x
 1305  01:D45A  A9 D5             lda     #HIGH(EFBigExp_0_move)
 1306  01:D45C  9D 80 29          sta     CH_procptrh,x
 1307                     
 1308  01:D45F  A9 10             lda     #32/2
 1309  01:D461  9D 00 2C          sta     CH_sprdx,x
 1310  01:D464  9D 80 2C          sta     CH_sprdy,x
 1311                     
 1312  01:D467  62                cla
 1313  01:D468  9D 00 2F          sta     CH_var0,x
 1314                     
 1315  01:D46B  60                rts
 1316                     
 1317  01:D46C            ENBigExp_1_init:
 1318  01:D46C  9E 00 24          stz     CH_xl,x
 1319  01:D46F  A5 3F             lda     <z_en_init_xh
 1320  01:D471  18                clc
 1321  01:D472  69 08             adc     #8
 1322  01:D474  9D 80 24          sta     CH_xh,x
 1323  01:D477  9E 00 25          stz     CH_yl,x
 1324  01:D47A  A5 41             lda     <z_en_init_yh
 1325  01:D47C  38                sec
 1326  01:D47D  E9 08             sbc     #8
 1327  01:D47F  9D 80 25          sta     CH_yh,x
 1328                     
 1329  01:D482  A9 98             lda     #LOW(((spr_pattern2_bigexp_00-spr_pattern2)/2+$5000)/32)
 1330  01:D484  9D 00 2A          sta     CH_sprpatl,x
 1331  01:D487  A9 02             lda     #HIGH(((spr_pattern2_bigexp_00-spr_pattern2)/2+$5000)/32)
 1332  01:D489  9D 80 2A          sta     CH_sprpath,x
 1333                     
 1334  01:D48C  A9 84             lda     #$84
 1335  01:D48E  9D 00 2B          sta     CH_spratrl,x
 1336  01:D491  A9 19             lda     #$19
 1337  01:D493  9D 80 2B          sta     CH_spratrh,x
 1338                     
 1339  01:D496  A9 2F             lda     #LOW(EFBigExp_0_move)
 1340  01:D498  9D 00 29          sta     CH_procptrl,x
 1341  01:D49B  A9 D5             lda     #HIGH(EFBigExp_0_move)
 1342  01:D49D  9D 80 29          sta     CH_procptrh,x
 1343                     
 1344  01:D4A0  A9 10             lda     #32/2
 1345  01:D4A2  9D 00 2C          sta     CH_sprdx,x
 1346  01:D4A5  9D 80 2C          sta     CH_sprdy,x
 1347                     
 1348  01:D4A8  62                cla
 1349  01:D4A9  9D 00 2F          sta     CH_var0,x
 1350                     
 1351  01:D4AC  60                rts
 1352                     
 1353  01:D4AD            ENBigExp_2_init:
 1354  01:D4AD  9E 00 24          stz     CH_xl,x
 1355  01:D4B0  A5 3F             lda     <z_en_init_xh
 1356  01:D4B2  38                sec
 1357  01:D4B3  E9 08             sbc     #8
 1358  01:D4B5  9D 80 24          sta     CH_xh,x
 1359  01:D4B8  9E 00 25          stz     CH_yl,x
 1360  01:D4BB  A5 41             lda     <z_en_init_yh
 1361  01:D4BD  18                clc
 1362  01:D4BE  69 08             adc     #8
 1363  01:D4C0  9D 80 25          sta     CH_yh,x
 1364                     
 1365  01:D4C3  A9 98             lda     #LOW(((spr_pattern2_bigexp_00-spr_pattern2)/2+$5000)/32)
 1366  01:D4C5  9D 00 2A          sta     CH_sprpatl,x
 1367  01:D4C8  A9 02             lda     #HIGH(((spr_pattern2_bigexp_00-spr_pattern2)/2+$5000)/32)
 1368  01:D4CA  9D 80 2A          sta     CH_sprpath,x
 1369                     
 1370  01:D4CD  A9 84             lda     #$84
 1371  01:D4CF  9D 00 2B          sta     CH_spratrl,x
 1372  01:D4D2  A9 91             lda     #$91
 1373  01:D4D4  9D 80 2B          sta     CH_spratrh,x
 1374                     
 1375  01:D4D7  A9 2F             lda     #LOW(EFBigExp_0_move)
 1376  01:D4D9  9D 00 29          sta     CH_procptrl,x
 1377  01:D4DC  A9 D5             lda     #HIGH(EFBigExp_0_move)
 1378  01:D4DE  9D 80 29          sta     CH_procptrh,x
 1379                     
 1380  01:D4E1  A9 10             lda     #32/2
 1381  01:D4E3  9D 00 2C          sta     CH_sprdx,x
 1382  01:D4E6  9D 80 2C          sta     CH_sprdy,x
 1383                     
 1384  01:D4E9  62                cla
 1385  01:D4EA  9D 00 2F          sta     CH_var0,x
 1386                     
 1387  01:D4ED  60                rts
 1388                     
 1389  01:D4EE            ENBigExp_3_init:
 1390  01:D4EE  9E 00 24          stz     CH_xl,x
 1391  01:D4F1  A5 3F             lda     <z_en_init_xh
 1392  01:D4F3  18                clc
 1393  01:D4F4  69 08             adc     #8
 1394  01:D4F6  9D 80 24          sta     CH_xh,x
 1395  01:D4F9  9E 00 25          stz     CH_yl,x
 1396  01:D4FC  A5 41             lda     <z_en_init_yh
 1397  01:D4FE  18                clc
 1398  01:D4FF  69 08             adc     #8
 1399  01:D501  9D 80 25          sta     CH_yh,x
 1400                     
 1401  01:D504  A9 98             lda     #LOW(((spr_pattern2_bigexp_00-spr_pattern2)/2+$5000)/32)
 1402  01:D506  9D 00 2A          sta     CH_sprpatl,x
 1403  01:D509  A9 02             lda     #HIGH(((spr_pattern2_bigexp_00-spr_pattern2)/2+$5000)/32)
 1404  01:D50B  9D 80 2A          sta     CH_sprpath,x
 1405                     
 1406  01:D50E  A9 84             lda     #$84
 1407  01:D510  9D 00 2B          sta     CH_spratrl,x
 1408  01:D513  A9 99             lda     #$99
 1409  01:D515  9D 80 2B          sta     CH_spratrh,x
 1410                     
 1411  01:D518  A9 2F             lda     #LOW(EFBigExp_0_move)
 1412  01:D51A  9D 00 29          sta     CH_procptrl,x
 1413  01:D51D  A9 D5             lda     #HIGH(EFBigExp_0_move)
 1414  01:D51F  9D 80 29          sta     CH_procptrh,x
 1415                     
 1416  01:D522  A9 10             lda     #32/2
 1417  01:D524  9D 00 2C          sta     CH_sprdx,x
 1418  01:D527  9D 80 2C          sta     CH_sprdy,x
 1419                     
 1420  01:D52A  62                cla
 1421  01:D52B  9D 00 2F          sta     CH_var0,x
 1422                     
 1423  01:D52E  60                rts
 1424                     
 1425  01:D52F            EFBigExp_0_move:
 1426  01:D52F  83 07 27          tst     #$07,<z_frame
 1427  01:D532  D0 18             bne     .skip
 1428                     
 1429  01:D534  BD 00 2F          lda     CH_var0,x
 1430  01:D537  1A                inc     a
 1431  01:D538  C9 05             cmp     #5
 1432  01:D53A  B0 11             bcs     .end
 1433  01:D53C  9D 00 2F          sta     CH_var0,x
 1434                     
 1435  01:D53F  A8                tay
 1436  01:D540  B9 4E D5          lda     .pattern_l,y
 1437  01:D543  9D 00 2A          sta     CH_sprpatl,x
 1438  01:D546  B9 53 D5          lda     .pattern_h,y
 1439  01:D549  9D 80 2A          sta     CH_sprpath,x
 1440                     
 1441  01:D54C            .skip:
 1442  01:D54C  18                clc
 1443  01:D54D            .end:
 1444  01:D54D  60                rts
 1445  01:D54E            .pattern_l:
 1446  01:D54E  98                .db     LOW(((spr_pattern2_bigexp_00-spr_pattern2)/2+$5000)/32)
 1447  01:D54F  A0                .db     LOW(((spr_pattern2_bigexp_01-spr_pattern2)/2+$5000)/32)
 1448  01:D550  A8                .db     LOW(((spr_pattern2_bigexp_02-spr_pattern2)/2+$5000)/32)
 1449  01:D551  A0                .db     LOW(((spr_pattern2_bigexp_01-spr_pattern2)/2+$5000)/32)
 1450  01:D552  98                .db     LOW(((spr_pattern2_bigexp_00-spr_pattern2)/2+$5000)/32)
 1451  01:D553            .pattern_h:
 1452  01:D553  02                .db     HIGH(((spr_pattern2_bigexp_00-spr_pattern2)/2+$5000)/32)
 1453  01:D554  02                .db     HIGH(((spr_pattern2_bigexp_01-spr_pattern2)/2+$5000)/32)
 1454  01:D555  02                .db     HIGH(((spr_pattern2_bigexp_02-spr_pattern2)/2+$5000)/32)
 1455  01:D556  02                .db     HIGH(((spr_pattern2_bigexp_01-spr_pattern2)/2+$5000)/32)
 1456  01:D557  02                .db     HIGH(((spr_pattern2_bigexp_00-spr_pattern2)/2+$5000)/32)
 1457                     
 1458                     
#[1]   same.asm
#[2]   ebullet.asm
   15                             .include "ebullet.asm"
    1                     
    2           D558          .code
    3           0001          .bank   MAIN_BANK
    4                     
    5                     ; @parm z_tmp3  Âºæ„ÅÆÂàùÊúüÂ∫ßÊ®ô„ÅÆÂ∑ÆÂàÜ
    6                     ; @parm z_tmp4  Âºæ„ÅÆÂàùÊúüÂ∫ßÊ®ô„ÅÆÂ∑ÆÂàÜ
    7  01:D558            EB_shoot:
    8  01:D558  DA                phx
    9                     
   10  01:D559  5A                phy
   11                     
   12  01:D55A  A9 08             lda     #CDRV_ROLE_EBULLET
   13  01:D55C  85 11             sta     <z_tmp0
   14  01:D55E  A9 03             lda     #CDRV_SPR_EBULLET
   15  01:D560  85 12             sta     <z_tmp1
   16  01:D562  64 13             stz     <z_tmp2
   17  01:D564  20 AE C2          jsr     CDRVaddChr
   18  01:D567  B0 6B             bcs     .ret
   19                     
   20           2014      .dx     .equ    z_tmp3
   21           2015      .dy     .equ    z_tmp4
   22  01:D569  02                sxy
   23                                         ;y = source chr  x = new chr
   24  01:D56A  B9 00 24          lda     CH_xl,y
   25  01:D56D  9D 00 24          sta     CH_xl,x
   26  01:D570  B9 80 24          lda     CH_xh,y
   27  01:D573  18                clc
   28  01:D574  65 14             adc     <.dx
   29  01:D576  9D 80 24          sta     CH_xh,x
   30  01:D579  B9 00 25          lda     CH_yl,y
   31  01:D57C  9D 00 25          sta     CH_yl,x
   32  01:D57F  B9 80 25          lda     CH_yh,y
   33  01:D582  18                clc
   34  01:D583  65 15             adc     <.dy
   35  01:D585  9D 80 25          sta     CH_yh,x
   36                     
   37  01:D588  A9 00             lda     #LOW(((spr_pattern_eb-spr_pattern)/2+$4000)/32)
   38  01:D58A  9D 00 2A          sta     CH_sprpatl,x
   39  01:D58D  A9 02             lda     #HIGH(((spr_pattern_eb-spr_pattern)/2+$4000)/32)
   40  01:D58F  9D 80 2A          sta     CH_sprpath,x
   41                     
   42  01:D592  A9 80             lda     #$80
   43  01:D594  9D 00 2B          sta     CH_spratrl,x
   44  01:D597  A9 00             lda     #$00
   45  01:D599  9D 80 2B          sta     CH_spratrh,x
   46                     
   47  01:D59C  A9 02             lda     #4/2
   48  01:D59E  9D 00 2C          sta     CH_sprdx,x
   49  01:D5A1  9D 80 2C          sta     CH_sprdy,x
   50                     
   51  01:D5A4  A9 02             lda     #2
   52  01:D5A6  9D 00 2D          sta     CH_coldx,x
   53  01:D5A9  9D 80 2D          sta     CH_coldy,x
   54                     
   55  01:D5AC  A9 D7             lda     #LOW(EB_move)
   56  01:D5AE  9D 00 29          sta     CH_procptrl,x
   57  01:D5B1  A9 D5             lda     #HIGH(EB_move)
   58  01:D5B3  9D 80 29          sta     CH_procptrh,x
   59                     
   60  01:D5B6  7A                ply             ; y = direction
   61                     
   62  01:D5B7  DA                phx
   63  01:D5B8  A9 04             lda     #4
   64  01:D5BA  20 5D CC          jsr     convDirection2DxDy
   65  01:D5BD  FA                plx
   66                     
   67  01:D5BE  A5 38             lda     <z_dir_result_dx
   68  01:D5C0  9D 00 26          sta     CH_dxl,x
   69  01:D5C3  A5 39             lda     <z_dir_result_dx+1
   70  01:D5C5  9D 80 26          sta     CH_dxh,x
   71  01:D5C8  A5 3A             lda     <z_dir_result_dy
   72  01:D5CA  9D 00 27          sta     CH_dyl,x
   73  01:D5CD  A5 3B             lda     <z_dir_result_dy+1
   74  01:D5CF  9D 80 27          sta     CH_dyh,x
   75                     
   76  01:D5D2  FA                plx
   77  01:D5D3  60                rts
   78                     
   79  01:D5D4            .ret:
   80  01:D5D4  7A                ply
   81  01:D5D5  FA                plx
   82  01:D5D6  60                rts
   83                     
   84                     
   85  01:D5D7            EB_move:
   86  01:D5D7  BD 00 24          lda     CH_xl,x
   87  01:D5DA  18                clc
   88  01:D5DB  7D 00 26          adc     CH_dxl,x
   89  01:D5DE  9D 00 24          sta     CH_xl,x
   90  01:D5E1  BD 80 24          lda     CH_xh,x
   91  01:D5E4  7D 80 26          adc     CH_dxh,x
   92  01:D5E7  9D 80 24          sta     CH_xh,x
   93                     
   94  01:D5EA  C9 B8             cmp     #(336+32)/2
   95  01:D5EC  B0 21             bcs     .out
   96  01:D5EE  C9 10             cmp     #32/2
   97  01:D5F0  90 1D             bcc     .out
   98                     
   99  01:D5F2  BD 00 25          lda     CH_yl,x
  100  01:D5F5  18                clc
  101  01:D5F6  7D 00 27          adc     CH_dyl,x
  102  01:D5F9  9D 00 25          sta     CH_yl,x
  103  01:D5FC  BD 80 25          lda     CH_yh,x
  104  01:D5FF  7D 80 27          adc     CH_dyh,x
  105  01:D602  9D 80 25          sta     CH_yh,x
  106                     
  107  01:D605  C9 98             cmp     #(240+64)/2
  108  01:D607  B0 06             bcs     .out
  109  01:D609  C9 20             cmp     #64/2
  110  01:D60B  90 02             bcc     .out
  111                     
  112  01:D60D  18                clc
  113  01:D60E  60                rts
  114                                     ; out of screen
  115  01:D60F            .out:
  116  01:D60F  38                sec
  117  01:D610  60                rts
  118                     
#[1]   same.asm
#[2]   collision.asm
   16                             .include "collision.asm"
    1           D611              .code
    2                     
    3                     
    4                     ; Ë°ùÁ™ÅÂà§ÂÆö
    5                     ; @param        x       character
    6                     ; @param        z_tmp0  x of collision partner
    7                     ; @param        z_tmp1  y of collision partner
    8                     ; @return       cc      collided
    9                     ; @save         x,y
   10  01:D611            CLtest:
   11           2011      .targetx        .equ    z_tmp0
   12           2012      .targety        .equ    z_tmp1
   13                     
   14                                                     ;24-28
   15  01:D611  BD 80 24          lda     CH_xh,x         ;5
   16  01:D614  38                sec                     ;2
   17  01:D615  E5 11             sbc     <.targetx       ;4
   18  01:D617  10 03             bpl     .plusx          ;2 / 4
   19                     
   20  01:D619  49 FF             eor     #$ff            ;2
   21  01:D61B  1A                inc     a               ;2
   22  01:D61C            .plusx:
   23  01:D61C  DD 00 2D          cmp     CH_coldx,x      ;5
   24  01:D61F  B0 0E             bcs     .ret            ;2 / 4
   25                     
   26  01:D621  BD 80 25          lda     CH_yh,x         ;5
   27  01:D624  38                sec                     ;2
   28  01:D625  E5 12             sbc     <.targety       ;4
   29  01:D627  10 03             bpl     .plusy          ;2 / 4
   30                     
   31  01:D629  49 FF             eor     #$ff            ;2
   32  01:D62B  1A                inc     a               ;2
   33  01:D62C            .plusy:
   34  01:D62C  DD 80 2D          cmp     CH_coldy,x      ;5
   35  01:D62F  60        .ret:   rts                     ;cs = collision
   36                     
   37                     
   38                     ;
   39                     ; Ëá™Ê©ü„Å®ÊïµÂºæ
   40                     ;
   41  01:D630            CLtestPlayer2EBullet:
   42                                     ; set player's position
   43  01:D630  AE F0 34          ldx     PL_chr
   44  01:D633  BD 80 24          lda     CH_xh,x
   45  01:D636  85 11             sta     <z_tmp0
   46  01:D638  BD 80 25          lda     CH_yh,x
   47  01:D63B  85 12             sta     <z_tmp1
   48                     
   49  01:D63D  AD 88 34          lda     CDrv_role_class_table+CDRV_ROLE_EBULLET
   50  01:D640            .loop:
   51  01:D640  F0 22             beq     .end
   52  01:D642  AA                tax
   53                             
   54  01:D643  20 11 D6          jsr     CLtest
   55                     
   56  01:D646  B0 17             bcs     .next
   57                     
   58                                     ; collided
   59  01:D648  AC F0 34          ldy     PL_chr
   60  01:D64B  A9 B1             lda     #LOW(PLdead)
   61  01:D64D  99 00 29          sta     CH_procptrl,y
   62  01:D650  A9 C6             lda     #HIGH(PLdead)
   63  01:D652  99 80 29          sta     CH_procptrh,y
   64                     
   65  01:D655  BD 00 32          lda     CH_role_next,x
   66  01:D658  48                pha
   67  01:D659  20 2C C3          jsr     CDRVremoveChr
   68  01:D65C  68                pla
   69  01:D65D  80 E1             bra     .loop
   70                     
   71  01:D65F            .next:
   72  01:D65F  BD 00 32          lda     CH_role_next,x
   73  01:D662  80 DC             bra     .loop
   74  01:D664            .end:
   75  01:D664  60                rts
   76                     
   77                     
   78                     ;
   79                     ;„ÄÄË°ùÁ™ÅÂà§ÂÆöÔºàËá™Âºæ„ÄÄÊïµÔºâ
   80                     ;„ÄÄÔº†TODO  Á∑èÂΩì„Åü„ÇäÂà§ÂÆö„Å™„ÅÆ„ÅßÂá¶ÁêÜÈáè„ÅåÂ§ö„ÅÑ
   81  01:D665            CLtestPBullet2Enemy:
   82                                     ;Ëá™Ê©üÂºæ„Åß„É´„Éº„Éó
   83  01:D665  A0 02             ldy     #CDRV_ROLE_PBULLET_M1
   84  01:D667            .loop:
   85  01:D667  B9 80 34          lda     CDrv_role_class_table,y
   86  01:D66A  F0 3A             beq     .next
   87                     
   88  01:D66C  5A                phy
   89  01:D66D            .loop2:
   90  01:D66D  AA                tax
   91  01:D66E  BD 80 24          lda     CH_xh,x
   92  01:D671  85 11             sta     <z_tmp0
   93  01:D673  BD 80 25          lda     CH_yh,x
   94  01:D676  85 12             sta     <z_tmp1
   95                     
   96           2020      .hit    .equ    z_tmp15
   97  01:D678  64 20             stz     <.hit
   98                     
   99  01:D67A  AD 8B 34          lda     CDrv_role_class_table+CDRV_ROLE_ENEMY_G1
  100  01:D67D  F0 05             beq     .sky
  101  01:D67F  20 AC D6          jsr     CLtest1PBullet2Enemy
  102  01:D682  66 20             ror     <.hit
  103  01:D684            .sky:
  104  01:D684  AD 89 34          lda     CDrv_role_class_table+CDRV_ROLE_ENEMY_S1
  105  01:D687  F0 05             beq     .hitchk
  106  01:D689  20 AC D6          jsr     CLtest1PBullet2Enemy
  107  01:D68C  66 20             ror     <.hit
  108                     
  109  01:D68E            .hitchk:
  110  01:D68E  A5 20             lda     <.hit
  111  01:D690  F0 0E             beq     .next2
  112                     ;        bcs     .next2
  113                     
  114  01:D692  A5 2A             lda     <z_pl_arm       ;Ëá™Âºæ„Åå„ÉØ„Ç§„Éâ„ÅÆÂ†¥Âêà„ÅØÊ∂à„Åô
  115  01:D694  D0 0A             bne     .next2
  116                     
  117  01:D696  BD 00 32          lda     CH_role_next,x
  118  01:D699  48                pha
  119  01:D69A  20 2C C3          jsr     CDRVremoveChr
  120  01:D69D  68                pla
  121  01:D69E  80 03             bra     .next3
  122                     
  123  01:D6A0            .next2:
  124  01:D6A0  BD 00 32          lda     CH_role_next,x
  125  01:D6A3            .next3:
  126  01:D6A3  D0 C8             bne     .loop2
  127                     
  128  01:D6A5  7A                ply
  129  01:D6A6            .next:
  130  01:D6A6  C8                iny
  131  01:D6A7  C0 08             cpy     #CDRV_ROLE_PBULLET_M1+6
  132  01:D6A9  D0 BC             bne     .loop
  133  01:D6AB  60                rts
  134                     
  135                     
  136                     
  137  01:D6AC            CLtest1PBullet2Enemy:
  138           2013      .procptr        .equ    z_tmp2
  139           2015      .regist         .equ    z_tmp4
  140                     
  141                                     ;Êïµ„Åß„É´„Éº„Éó
  142  01:D6AC  DA                phx
  143                     
  144                             ;lda     CDrv_role_class_table+CDRV_ROLE_ENEMY_G1
  145  01:D6AD            .loop:
  146  01:D6AD  F0 3F             beq     .end
  147  01:D6AF  AA                tax
  148                             
  149  01:D6B0  20 11 D6          jsr     CLtest
  150                     
  151  01:D6B3  B0 34             bcs     .next
  152                     
  153                                     ; Ë°ùÁ™Å
  154  01:D6B5  A9 D6             lda     #HIGH(.enddamaged-1)       ;Ë¶ÅÊ≥®ÊÑè push„Åô„Çã„ÅÆ„ÅØ Êàª„Çä„Ç¢„Éâ„É¨„Çπ-1
  155  01:D6B7  48                pha
  156  01:D6B8  A9 E5             lda     #LOW(.enddamaged-1)
  157  01:D6BA  48                pha
  158                     
  159  01:D6BB  BD 00 2E          lda     CH_regist,x
  160  01:D6BE  F0 16             beq     .dead
  161  01:D6C0  3A                dec     a
  162  01:D6C1  9D 00 2E          sta     CH_regist,x
  163  01:D6C4  F0 10             beq     .dead
  164                     
  165  01:D6C6  BC 80 2E          ldy     CH_damaged_class,x
  166  01:D6C9  B9 02 D1          lda     EN_damaged_procl,y
  167  01:D6CC  85 13             sta     <.procptr
  168  01:D6CE  B9 05 D1          lda     EN_damaged_proch,y
  169  01:D6D1  85 14             sta     <.procptr+1
  170  01:D6D3  6C 13 20          jmp     [.procptr]
  171                     
  172  01:D6D6            .dead:
  173  01:D6D6  BC 80 2E          ldy     CH_damaged_class,x
  174  01:D6D9  B9 08 D1          lda     EN_dead_procl,y
  175  01:D6DC  85 13             sta     <.procptr
  176  01:D6DE  B9 0B D1          lda     EN_dead_proch,y
  177  01:D6E1  85 14             sta     <.procptr+1
  178  01:D6E3  6C 13 20          jmp     [.procptr]
  179                     
  180  01:D6E6            .enddamaged:
  181  01:D6E6  FA                plx
  182  01:D6E7  38                sec
  183  01:D6E8  60                rts
  184                     
  185  01:D6E9            .next:
  186  01:D6E9  BD 00 32          lda     CH_role_next,x
  187  01:D6EC  80 BF             bra     .loop
  188  01:D6EE            .end:
  189  01:D6EE  FA                plx
  190  01:D6EF  18                clc
  191  01:D6F0  60                rts
  192                     
#[1]   same.asm
#[2]   effect.asm
   17                             .include "effect.asm"
    1           D6F1              .code
    2           0001              .bank   MAIN_BANK
    3                     
    4                     
    5  01:D6F1            EFcreateExplosion:
    6  01:D6F1  A9 11             lda     #CDRV_ROLE_EFFECT
    7  01:D6F3  85 11             sta     <z_tmp0
    8  01:D6F5  A9 08             lda     #CDRV_SPR_EFFECT_G
    9  01:D6F7  85 12             sta     <z_tmp1
   10  01:D6F9  64 13             stz     <z_tmp2
   11  01:D6FB  20 AE C2          jsr     CDRVaddChr
   12  01:D6FE  90 01             bcc     .init
   13  01:D700  60                rts
   14  01:D701            .init:
   15  01:D701  DA                phx
   16                                             ;y=new chr
   17  01:D702  BD 00 24          lda     CH_xl,x
   18  01:D705  99 00 24          sta     CH_xl,y
   19  01:D708  BD 80 24          lda     CH_xh,x
   20  01:D70B  99 80 24          sta     CH_xh,y
   21  01:D70E  BD 00 25          lda     CH_yl,x
   22  01:D711  99 00 25          sta     CH_yl,y
   23  01:D714  BD 80 25          lda     CH_yh,x
   24  01:D717  99 80 25          sta     CH_yh,y
   25                     
   26  01:D71A  A9 48             lda     #LOW(((spr_pattern_exp00-spr_pattern)/2+$4000)/32)
   27  01:D71C  99 00 2A          sta     CH_sprpatl,y
   28  01:D71F  A9 02             lda     #HIGH(((spr_pattern_exp00-spr_pattern)/2+$4000)/32)
   29  01:D721  99 80 2A          sta     CH_sprpath,y
   30                     
   31  01:D724  A9 84             lda     #$84
   32  01:D726  99 00 2B          sta     CH_spratrl,y
   33  01:D729  A9 11             lda     #$11
   34  01:D72B  99 80 2B          sta     CH_spratrh,y
   35                     
   36                     ;        lda     #16/2
   37                     ;        sta     CH_sprdx,x
   38                     ;        sta     CH_sprdy,x
   39                     
   40  01:D72E  A9 08             lda     #8
   41  01:D730  99 00 2D          sta     CH_coldx,y
   42  01:D733  99 80 2D          sta     CH_coldy,y
   43                     
   44                     ;        lda     #4
   45                     ;        sta     CH_regist,x
   46                     
   47                     ;        lda     #1
   48                     ;        sta     CH_damaged_class,x
   49                     
   50  01:D736  A9 47             lda     #LOW(EFExplosion_move)
   51  01:D738  99 00 29          sta     CH_procptrl,y
   52  01:D73B  A9 D7             lda     #HIGH(EFExplosion_move)
   53  01:D73D  99 80 29          sta     CH_procptrh,y
   54                     
   55  01:D740  62                cla
   56  01:D741  99 00 2F          sta     CH_var0,y
   57                     
   58  01:D744  FA                plx
   59  01:D745  18                clc
   60  01:D746  60                rts
   61                     
   62  01:D747            EFExplosion_move:
   63  01:D747  83 03 27          tst     #$03,<z_frame
   64  01:D74A  D0 18             bne     .skip
   65                     
   66  01:D74C  BD 00 2F          lda     CH_var0,x
   67  01:D74F  1A                inc     a
   68  01:D750  C9 05             cmp     #5
   69  01:D752  B0 11             bcs     .end
   70  01:D754  9D 00 2F          sta     CH_var0,x
   71                     
   72  01:D757  A8                tay
   73  01:D758  B9 66 D7          lda     .pattern_l,y
   74  01:D75B  9D 00 2A          sta     CH_sprpatl,x
   75  01:D75E  B9 6B D7          lda     .pattern_h,y
   76  01:D761  9D 80 2A          sta     CH_sprpath,x
   77                     
   78  01:D764            .skip:
   79  01:D764  18                clc
   80  01:D765            .end:
   81  01:D765  60                rts
   82  01:D766            .pattern_l:
   83  01:D766  48                .db     LOW(((spr_pattern_exp00-spr_pattern)/2+$4000)/32)
   84  01:D767  50                .db     LOW(((spr_pattern_exp01-spr_pattern)/2+$4000)/32)
   85  01:D768  58                .db     LOW(((spr_pattern_exp02-spr_pattern)/2+$4000)/32)
   86  01:D769  50                .db     LOW(((spr_pattern_exp01-spr_pattern)/2+$4000)/32)
   87  01:D76A  48                .db     LOW(((spr_pattern_exp00-spr_pattern)/2+$4000)/32)
   88  01:D76B            .pattern_h:
   89  01:D76B  02                .db     HIGH(((spr_pattern_exp00-spr_pattern)/2+$4000)/32)
   90  01:D76C  02                .db     HIGH(((spr_pattern_exp01-spr_pattern)/2+$4000)/32)
   91  01:D76D  02                .db     HIGH(((spr_pattern_exp02-spr_pattern)/2+$4000)/32)
   92  01:D76E  02                .db     HIGH(((spr_pattern_exp01-spr_pattern)/2+$4000)/32)
   93  01:D76F  02                .db     HIGH(((spr_pattern_exp00-spr_pattern)/2+$4000)/32)
   94                     
   95                     ;-----------------------------
   96                     
   97  01:D770            EFcreateDamagedFire:
   98           2014      .arg_dy .equ    z_tmp3
   99  01:D770  A9 11             lda     #CDRV_ROLE_EFFECT
  100  01:D772  85 11             sta     <z_tmp0
  101  01:D774  A9 04             lda     #CDRV_SPR_EFFECT_DAMAGE
  102  01:D776  85 12             sta     <z_tmp1
  103  01:D778  86 13             stx     <z_tmp2
  104  01:D77A  20 AE C2          jsr     CDRVaddChr
  105  01:D77D  90 01             bcc     .init
  106  01:D77F  60                rts
  107  01:D780            .init:
  108  01:D780  DA                phx
  109                                             ;y=new chr
  110  01:D781  A5 14             lda     <.arg_dy
  111  01:D783  99 00 2F          sta     CH_var0,y
  112                     ;        lda     CH_xl,x
  113                     ;        sta     CH_xl,y
  114                     ;        lda     CH_xh,x
  115                     ;        sec
  116                     ;        sbc     #8/2
  117                     ;        sta     CH_xh,y
  118                     ;        lda     CH_yl,x
  119                     ;        sta     CH_yl,y
  120                     ;        lda     CH_yh,x
  121                     ;        clc
  122                     ;        adc     <.arg_dy
  123                     ;        sta     CH_yh,y
  124                     
  125  01:D786  A9 F8             lda     #LOW(((spr_pattern2_damaged_fire-spr_pattern2)/2+$5000)/32)
  126  01:D788  99 00 2A          sta     CH_sprpatl,y
  127  01:D78B  A9 02             lda     #HIGH(((spr_pattern2_damaged_fire-spr_pattern2)/2+$5000)/32)
  128  01:D78D  99 80 2A          sta     CH_sprpath,y
  129                     
  130  01:D790  A9 84             lda     #$84
  131  01:D792  99 00 2B          sta     CH_spratrl,y
  132  01:D795  A9 01             lda     #$01
  133  01:D797  99 80 2B          sta     CH_spratrh,y
  134                     
  135  01:D79A  A9 10             lda     #32/2
  136  01:D79C  99 00 2C          sta     CH_sprdx,y
  137  01:D79F  A9 08             lda     #16/2
  138  01:D7A1  99 80 2C          sta     CH_sprdy,y
  139                     
  140                     ;        lda     #8
  141                     ;        sta     CH_coldx,y
  142                     ;        sta     CH_coldy,y
  143                     
  144                     ;        lda     #4
  145                     ;        sta     CH_regist,x
  146                     
  147                     ;        lda     #1
  148                     ;        sta     CH_damaged_class,x
  149                     
  150  01:D7A4  A9 B1             lda     #LOW(EFDamagedFire_move)
  151  01:D7A6  99 00 29          sta     CH_procptrl,y
  152  01:D7A9  A9 D7             lda     #HIGH(EFDamagedFire_move)
  153  01:D7AB  99 80 29          sta     CH_procptrh,y
  154                     
  155                     ;        cla
  156                     ;        sta     CH_var0,y
  157                     
  158  01:D7AE  FA                plx
  159  01:D7AF  18                clc
  160  01:D7B0  60                rts
  161                     
  162  01:D7B1            EFDamagedFire_move:
  163  01:D7B1  BD 00 31          lda     CH_grp_parent,x
  164  01:D7B4  A8                tay
  165                     
  166  01:D7B5  B9 00 24          lda     CH_xl,y
  167  01:D7B8  9D 00 24          sta     CH_xl,x
  168  01:D7BB  B9 80 24          lda     CH_xh,y
  169  01:D7BE  18                clc
  170  01:D7BF  69 04             adc     #4
  171  01:D7C1  9D 80 24          sta     CH_xh,x
  172  01:D7C4  B9 00 25          lda     CH_yl,y
  173  01:D7C7  9D 00 25          sta     CH_yl,x
  174  01:D7CA  B9 80 25          lda     CH_yh,y
  175  01:D7CD  18                clc
  176  01:D7CE  7D 00 2F          adc     CH_var0,x
  177  01:D7D1  9D 80 25          sta     CH_yh,x
  178                     
  179  01:D7D4  83 03 27          tst     #$03,<z_frame
  180  01:D7D7  D0 08             bne     .end
  181                     
  182                     ;        lda     CH_var0,x
  183                     ;        inc     a
  184                     ;        cmp     #5
  185                     ;        bcs     .end
  186                     ;        sta     CH_var0,x
  187                     
  188  01:D7D9  BD 80 2B          lda     CH_spratrh,x
  189  01:D7DC  49 80             eor     #$80
  190  01:D7DE  9D 80 2B          sta     CH_spratrh,x
  191                     
  192  01:D7E1            .end:
  193  01:D7E1  18                clc
  194  01:D7E2  60                rts
#[1]   same.asm
#[2]   sprpattern.asm
   18                             .include        "sprpattern.asm"
    1           0003              .bank   MAIN_BANK+2
    2           8000              .org    $8000
    3                     
    4  03:8000            spr_pattern2:
    5                     
    6  03:8000            spr_pattern2_big_00:
    7  03:8000  00 00             dw $0000,$0000,$0000,$0000,$0000,$0000,$0000,$0000
       03:8002  00 00     
       03:8004  00 00     
       03:8006  00 00     
       03:8008  00 00     
       03:800A  00 00     
       03:800C  00 00     
       03:800E  00 00     
    8  03:8010  00 00             dw $0000,$0000,$0000,$7c00,$7a00,$7d00,$7e80,$7ec0
       03:8012  00 00     
       03:8014  00 00     
       03:8016  00 7C     
       03:8018  00 7A     
       03:801A  00 7D     
       03:801C  80 7E     
       03:801E  C0 7E     
    9  03:8020  00 00             dw $0000,$0000,$0000,$0000,$0000,$0000,$0000,$0000
       03:8022  00 00     
       03:8024  00 00     
       03:8026  00 00     
       03:8028  00 00     
       03:802A  00 00     
       03:802C  00 00     
       03:802E  00 00     
   10  03:8030  00 00             dw $0000,$0000,$0000,$3c00,$7e00,$7f00,$7f80,$3f40
       03:8032  00 00     
       03:8034  00 00     
       03:8036  00 3C     
       03:8038  00 7E     
       03:803A  00 7F     
       03:803C  80 7F     
       03:803E  40 3F     
   11  03:8040  00 00             dw $0000,$0000,$0000,$0000,$0000,$0000,$0000,$0000
       03:8042  00 00     
       03:8044  00 00     
       03:8046  00 00     
       03:8048  00 00     
       03:804A  00 00     
       03:804C  00 00     
       03:804E  00 00     
   12  03:8050  00 00             dw $0000,$0000,$0000,$4000,$7e00,$7f00,$7f80,$4000
       03:8052  00 00     
       03:8054  00 00     
       03:8056  00 40     
       03:8058  00 7E     
       03:805A  00 7F     
       03:805C  80 7F     
       03:805E  00 40     
   13  03:8060  00 00             dw $0000,$0000,$0000,$0000,$0000,$0000,$0000,$0000
       03:8062  00 00     
       03:8064  00 00     
       03:8066  00 00     
       03:8068  00 00     
       03:806A  00 00     
       03:806C  00 00     
       03:806E  00 00     
   14  03:8070  00 00             dw $0000,$0000,$0000,$0000,$7e00,$7f00,$7f80,$0000
       03:8072  00 00     
       03:8074  00 00     
       03:8076  00 00     
       03:8078  00 7E     
       03:807A  00 7F     
       03:807C  80 7F     
       03:807E  00 00     
   15  03:8080  00 00             dw $0000,$0000,$0000,$0000,$0000,$0000,$0000,$0000
       03:8082  00 00     
       03:8084  00 00     
       03:8086  00 00     
       03:8088  00 00     
       03:808A  00 00     
       03:808C  00 00     
       03:808E  00 00     
   16  03:8090  00 00             dw $0000,$0000,$0000,$0000,$0000,$0000,$0000,$0000
       03:8092  00 00     
       03:8094  00 00     
       03:8096  00 00     
       03:8098  00 00     
       03:809A  00 00     
       03:809C  00 00     
       03:809E  00 00     
   17  03:80A0  00 00             dw $0000,$0000,$0000,$0000,$0000,$0000,$0000,$0000
       03:80A2  00 00     
       03:80A4  00 00     
       03:80A6  00 00     
       03:80A8  00 00     
       03:80AA  00 00     
       03:80AC  00 00     
       03:80AE  00 00     
   18  03:80B0  00 00             dw $0000,$0000,$0000,$0000,$0000,$0000,$0000,$0000
       03:80B2  00 00     
       03:80B4  00 00     
       03:80B6  00 00     
       03:80B8  00 00     
       03:80BA  00 00     
       03:80BC  00 00     
       03:80BE  00 00     
   19  03:80C0  00 00             dw $0000,$0000,$0000,$0000,$0000,$0000,$0000,$0000
       03:80C2  00 00     
       03:80C4  00 00     
       03:80C6  00 00     
       03:80C8  00 00     
       03:80CA  00 00     
       03:80CC  00 00     
       03:80CE  00 00     
   20  03:80D0  00 00             dw $0000,$0000,$0000,$0000,$0000,$0000,$0000,$0000
       03:80D2  00 00     
       03:80D4  00 00     
       03:80D6  00 00     
       03:80D8  00 00     
       03:80DA  00 00     
       03:80DC  00 00     
       03:80DE  00 00     
   21  03:80E0  00 00             dw $0000,$0000,$0000,$0000,$0000,$0000,$0000,$0000
       03:80E2  00 00     
       03:80E4  00 00     
       03:80E6  00 00     
       03:80E8  00 00     
       03:80EA  00 00     
       03:80EC  00 00     
       03:80EE  00 00     
   22  03:80F0  00 00             dw $0000,$0000,$0000,$0000,$0000,$0000,$0000,$0000
       03:80F2  00 00     
       03:80F4  00 00     
       03:80F6  00 00     
       03:80F8  00 00     
       03:80FA  00 00     
       03:80FC  00 00     
       03:80FE  00 00     
   23  03:8100  C0 3C             dw $3cc0,$4960,$7560,$49b0,$75b0,$49b0,$75d8,$49d8
       03:8102  60 49     
       03:8104  60 75     
       03:8106  B0 49     
       03:8108  B0 75     
       03:810A  B0 49     
       03:810C  D8 75     
       03:810E  D8 49     
   24  03:8110  D8 75             dw $75d8,$49ec,$3dec,$7fec,$7fec,$7fef,$306f,$007e
       03:8112  EC 49     
       03:8114  EC 3D     
       03:8116  EC 7F     
       03:8118  EC 7F     
       03:811A  EF 7F     
       03:811C  6F 30     
       03:811E  7E 00     
   25  03:8120  40 41             dw $4140,$0da0,$39a0,$0dd0,$39d0,$0dd0,$39e8,$0de8
       03:8122  A0 0D     
       03:8124  A0 39     
       03:8126  D0 0D     
       03:8128  D0 39     
       03:812A  D0 0D     
       03:812C  E8 39     
       03:812E  E8 0D     
   26  03:8130  E8 39             dw $39e8,$0df4,$41f4,$3ff4,$3ff7,$3ff4,$3ff7,$ff80
       03:8132  F4 0D     
       03:8134  F4 41     
       03:8136  F4 3F     
       03:8138  F7 3F     
       03:813A  F4 3F     
       03:813C  F7 3F     
       03:813E  80 FF     
   27  03:8140  00 7E             dw $7e00,$7200,$4200,$7200,$4200,$7200,$4200,$7200
       03:8142  00 72     
       03:8144  00 42     
       03:8146  00 72     
       03:8148  00 42     
       03:814A  00 72     
       03:814C  00 42     
       03:814E  00 72     
   28  03:8150  00 42             dw $4200,$7200,$7e00,$4000,$4003,$4003,$4f80,$0001
       03:8152  00 72     
       03:8154  00 7E     
       03:8156  00 40     
       03:8158  03 40     
       03:815A  03 40     
       03:815C  80 4F     
       03:815E  01 00     
   29  03:8160  00 00             dw $0000,$0000,$0000,$0000,$0000,$0000,$0000,$0000
       03:8162  00 00     
       03:8164  00 00     
       03:8166  00 00     
       03:8168  00 00     
       03:816A  00 00     
       03:816C  00 00     
       03:816E  00 00     
   30  03:8170  00 00             dw $0000,$0000,$0000,$0000,$0000,$0000,$0f80,$fffe
       03:8172  00 00     
       03:8174  00 00     
       03:8176  00 00     
       03:8178  00 00     
       03:817A  00 00     
       03:817C  80 0F     
       03:817E  FE FF     
   31  03:8180  00 00             dw $0000,$0000,$0000,$0000,$0000,$0000,$0000,$0000
       03:8182  00 00     
       03:8184  00 00     
       03:8186  00 00     
       03:8188  00 00     
       03:818A  00 00     
       03:818C  00 00     
       03:818E  00 00     
   32  03:8190  02 00             dw $0002,$0001,$0002,$0002,$07f9,$dc42,$d87a,$2541
       03:8192  01 00     
       03:8194  02 00     
       03:8196  02 00     
       03:8198  F9 07     
       03:819A  42 DC     
       03:819C  7A D8     
       03:819E  41 25     
   33  03:81A0  00 00             dw $0000,$0000,$0000,$0000,$0000,$0000,$0000,$0000
       03:81A2  00 00     
       03:81A4  00 00     
       03:81A6  00 00     
       03:81A8  00 00     
       03:81AA  00 00     
       03:81AC  00 00     
       03:81AE  00 00     
   34  03:81B0  03 00             dw $0003,$0002,$0003,$07c3,$d83a,$247b,$dd43,$057a
       03:81B2  02 00     
       03:81B4  03 00     
       03:81B6  C3 07     
       03:81B8  3A D8     
       03:81BA  7B 24     
       03:81BC  43 DD     
       03:81BE  7A 05     
   35  03:81C0  00 00             dw $0000,$0000,$0000,$0000,$0000,$0000,$0000,$0000
       03:81C2  00 00     
       03:81C4  00 00     
       03:81C6  00 00     
       03:81C8  00 00     
       03:81CA  00 00     
       03:81CC  00 00     
       03:81CE  00 00     
   36  03:81D0  03 00             dw $0003,$0003,$0003,$07c3,$dffb,$fbbb,$22bb,$fabb
       03:81D2  03 00     
       03:81D4  03 00     
       03:81D6  C3 07     
       03:81D8  FB DF     
       03:81DA  BB FB     
       03:81DC  BB 22     
       03:81DE  BB FA     
   37  03:81E0  00 00             dw $0000,$0000,$0000,$0000,$0000,$0000,$0000,$0000
       03:81E2  00 00     
       03:81E4  00 00     
       03:81E6  00 00     
       03:81E8  00 00     
       03:81EA  00 00     
       03:81EC  00 00     
       03:81EE  00 00     
   38  03:81F0  00 00             dw $0000,$0000,$003c,$003c,$2004,$0004,$0004,$0004
       03:81F2  00 00     
       03:81F4  3C 00     
       03:81F6  3C 00     
       03:81F8  04 20     
       03:81FA  04 00     
       03:81FC  04 00     
       03:81FE  04 00     
   39                     
   40  03:8200            spr_pattern2_big_01:
   41  03:8200  40 00             dw $0040,$0027,$0058,$0127,$01d8,$0058,$0027,$001c
       03:8202  27 00     
       03:8204  58 00     
       03:8206  27 01     
       03:8208  D8 01     
       03:820A  58 00     
       03:820C  27 00     
       03:820E  1C 00     
   42  03:8210  2C 00             dw $002c,$0063,$006c,$002c,$0023,$00ac,$012c,$01a3
       03:8212  63 00     
       03:8214  6C 00     
       03:8216  2C 00     
       03:8218  23 00     
       03:821A  AC 00     
       03:821C  2C 01     
       03:821E  A3 01     
   43  03:8220  40 00             dw $0040,$004f,$0068,$02cf,$0068,$0068,$004f,$0064
       03:8222  4F 00     
       03:8224  68 00     
       03:8226  CF 02     
       03:8228  68 00     
       03:822A  68 00     
       03:822C  4F 00     
       03:822E  64 00     
   44  03:8230  34 00             dw $0034,$0077,$0074,$0034,$0037,$0034,$0034,$0037
       03:8232  77 00     
       03:8234  74 00     
       03:8236  34 00     
       03:8238  37 00     
       03:823A  34 00     
       03:823C  34 00     
       03:823E  37 00     
   45  03:8240  7F 00             dw $007f,$0070,$01f7,$0270,$01f7,$0077,$0070,$007b
       03:8242  70 00     
       03:8244  F7 01     
       03:8246  70 02     
       03:8248  F7 01     
       03:824A  77 00     
       03:824C  70 00     
       03:824E  7B 00     
   46  03:8250  4B 00             dw $004b,$0078,$007b,$004b,$0048,$01cb,$014b,$01c8
       03:8252  78 00     
       03:8254  7B 00     
       03:8256  4B 00     
       03:8258  48 00     
       03:825A  CB 01     
       03:825C  4B 01     
       03:825E  C8 01     
   47  03:8260  00 00             dw $0000,$0000,$0180,$0380,$0180,$0000,$0000,$0000
       03:8262  00 00     
       03:8264  80 01     
       03:8266  80 03     
       03:8268  80 01     
       03:826A  00 00     
       03:826C  00 00     
       03:826E  00 00     
   48  03:8270  00 00             dw $0000,$0070,$0070,$0000,$0000,$0180,$0100,$0180
       03:8272  70 00     
       03:8274  70 00     
       03:8276  00 00     
       03:8278  00 00     
       03:827A  80 01     
       03:827C  00 01     
       03:827E  80 01     
   49  03:8280  00 20             dw $2000,$b800,$2c00,$dc00,$1600,$1600,$ce00,$1600
       03:8282  00 B8     
       03:8284  00 2C     
       03:8286  00 DC     
       03:8288  00 16     
       03:828A  00 16     
       03:828C  00 CE     
       03:828E  00 16     
   50  03:8290  00 16             dw $1600,$ce00,$1600,$1700,$ce00,$17c0,$0a40,$d7d0
       03:8292  00 CE     
       03:8294  00 16     
       03:8296  00 17     
       03:8298  00 CE     
       03:829A  C0 17     
       03:829C  40 0A     
       03:829E  D0 D7     
   51  03:82A0  00 20             dw $2000,$d800,$3400,$e400,$1a00,$1a00,$f200,$1a00
       03:82A2  00 D8     
       03:82A4  00 34     
       03:82A6  00 E4     
       03:82A8  00 1A     
       03:82AA  00 1A     
       03:82AC  00 F2     
       03:82AE  00 1A     
   52  03:82B0  00 1A             dw $1a00,$f200,$1a00,$1b00,$f300,$1a40,$0c00,$f900
       03:82B2  00 F2     
       03:82B4  00 1A     
       03:82B6  00 1B     
       03:82B8  00 F3     
       03:82BA  40 1A     
       03:82BC  00 0C     
       03:82BE  00 F9     
   53  03:82C0  00 C0             dw $c000,$0000,$c000,$0000,$e000,$e000,$0000,$e000
       03:82C2  00 00     
       03:82C4  00 C0     
       03:82C6  00 00     
       03:82C8  00 E0     
       03:82CA  00 E0     
       03:82CC  00 00     
       03:82CE  00 E0     
   54  03:82D0  00 E0             dw $e000,$0000,$e000,$e100,$0100,$e180,$f140,$00d0
       03:82D2  00 00     
       03:82D4  00 E0     
       03:82D6  00 E1     
       03:82D8  00 01     
       03:82DA  80 E1     
       03:82DC  40 F1     
       03:82DE  D0 00     
   55  03:82E0  00 00             dw $0000,$0000,$0000,$0000,$0000,$0000,$0000,$0000
       03:82E2  00 00     
       03:82E4  00 00     
       03:82E6  00 00     
       03:82E8  00 00     
       03:82EA  00 00     
       03:82EC  00 00     
       03:82EE  00 00     
   56  03:82F0  00 00             dw $0000,$0000,$0000,$0000,$0000,$00c0,$0040,$00d0
       03:82F2  00 00     
       03:82F4  00 00     
       03:82F6  00 00     
       03:82F8  00 00     
       03:82FA  C0 00     
       03:82FC  40 00     
       03:82FE  D0 00     
   57  03:8300  DC 07             dw $07dc,$08ac,$07a3,$14ac,$09dc,$0ca3,$07ad,$01ad
       03:8302  AC 08     
       03:8304  A3 07     
       03:8306  AC 14     
       03:8308  DC 09     
       03:830A  A3 0C     
       03:830C  AD 07     
       03:830E  AD 01     
   58  03:8310  22 00             dw $0022,$006d,$006d,$0022,$0f9d,$0055,$002a,$0199
       03:8312  6D 00     
       03:8314  6D 00     
       03:8316  22 00     
       03:8318  9D 0F     
       03:831A  55 00     
       03:831C  2A 00     
       03:831E  99 01     
   59  03:8320  64 02             dw $0264,$0334,$0437,$1734,$0364,$0237,$0234,$0034
       03:8322  34 03     
       03:8324  37 04     
       03:8326  34 17     
       03:8328  64 03     
       03:832A  37 02     
       03:832C  34 02     
       03:832E  34 00     
   60  03:8330  36 00             dw $0036,$0074,$0074,$0036,$1c64,$0064,$004e,$01e8
       03:8332  74 00     
       03:8334  74 00     
       03:8336  36 00     
       03:8338  64 1C     
       03:833A  64 00     
       03:833C  4E 00     
       03:833E  E8 01     
   61  03:8340  8B 07             dw $078b,$0ecb,$0ac8,$1acb,$0e8b,$0fc8,$07cb,$01cb
       03:8342  CB 0E     
       03:8344  C8 0A     
       03:8346  CB 1A     
       03:8348  8B 0E     
       03:834A  C8 0F     
       03:834C  CB 07     
       03:834E  CB 01     
   62  03:8350  49 00             dw $0049,$007b,$007b,$0049,$0bfb,$007b,$0071,$01f7
       03:8352  7B 00     
       03:8354  7B 00     
       03:8356  49 00     
       03:8358  FB 0B     
       03:835A  7B 00     
       03:835C  71 00     
       03:835E  F7 01     
   63  03:8360  80 05             dw $0580,$0d80,$0d80,$1d80,$0d80,$0d80,$0580,$0180
       03:8362  80 0D     
       03:8364  80 0D     
       03:8366  80 1D     
       03:8368  80 0D     
       03:836A  80 0D     
       03:836C  80 05     
       03:836E  80 01     
   64  03:8370  00 00             dw $0000,$0070,$0070,$0000,$1f80,$0000,$0000,$0000
       03:8372  70 00     
       03:8374  70 00     
       03:8376  00 00     
       03:8378  80 1F     
       03:837A  00 00     
       03:837C  00 00     
       03:837E  00 00     
   65  03:8380  F0 0A             dw $0af0,$0bd0,$d6d0,$0bf8,$0a00,$d7f0,$ca00,$4bd0
       03:8382  D0 0B     
       03:8384  D0 D6     
       03:8386  F8 0B     
       03:8388  00 0A     
       03:838A  F0 D7     
       03:838C  00 CA     
       03:838E  D0 4B     
   66  03:8390  00 96             dw $9600,$4b00,$4a00,$9700,$4ac0,$4b00,$9600,$4b00
       03:8392  00 4B     
       03:8394  00 4A     
       03:8396  00 97     
       03:8398  C0 4A     
       03:839A  00 4B     
       03:839C  00 96     
       03:839E  00 4B     
   67  03:83A0  F0 0C             dw $0cf0,$0d20,$f800,$0d08,$0cf0,$f9f0,$0c00,$8d00
       03:83A2  20 0D     
       03:83A4  00 F8     
       03:83A6  08 0D     
       03:83A8  F0 0C     
       03:83AA  F0 F9     
       03:83AC  00 0C     
       03:83AE  00 8D     
   68  03:83B0  00 38             dw $3800,$8d00,$8c00,$3900,$8c60,$8d00,$3800,$8d00
       03:83B2  00 8D     
       03:83B4  00 8C     
       03:83B6  00 39     
       03:83B8  60 8C     
       03:83BA  00 8D     
       03:83BC  00 38     
       03:83BE  00 8D     
   69  03:83C0  20 F1             dw $f120,$f020,$0120,$f028,$f120,$0020,$f1d0,$f0d0
       03:83C2  20 F0     
       03:83C4  20 01     
       03:83C6  28 F0     
       03:83C8  20 F1     
       03:83CA  20 00     
       03:83CC  D0 F1     
       03:83CE  D0 F0     
   70  03:83D0  00 C1             dw $c100,$f000,$f100,$c000,$f180,$f000,$c100,$f000
       03:83D2  00 F0     
       03:83D4  00 F1     
       03:83D6  00 C0     
       03:83D8  80 F1     
       03:83DA  00 F0     
       03:83DC  00 C1     
       03:83DE  00 F0     
   71  03:83E0  D0 00             dw $00d0,$00d0,$00d0,$00d8,$00d0,$00d0,$00f0,$00d0
       03:83E2  D0 00     
       03:83E4  D0 00     
       03:83E6  D8 00     
       03:83E8  D0 00     
       03:83EA  D0 00     
       03:83EC  F0 00     
       03:83EE  D0 00     
   72  03:83F0  00 00             dw $0000,$0000,$0000,$0000,$00e0,$0000,$0000,$0000
       03:83F2  00 00     
       03:83F4  00 00     
       03:83F6  00 00     
       03:83F8  E0 00     
       03:83FA  00 00     
       03:83FC  00 00     
       03:83FE  00 00     
   73                     
   74  03:8400            spr_pattern2_big_02:
   75  03:8400  4A 31             dw $314a,$9fd7,$640a,$680b,$9ff6,$624b,$61ca,$9f7b
       03:8402  D7 9F     
       03:8404  0A 64     
       03:8406  0B 68     
       03:8408  F6 9F     
       03:840A  4B 62     
       03:840C  CA 61     
       03:840E  7B 9F     
   76  03:8410  CA 61             dw $61ca,$624b,$9ff6,$680b,$640a,$9fd7,$314a,$994b
       03:8412  4B 62     
       03:8414  F6 9F     
       03:8416  0B 68     
       03:8418  0A 64     
       03:841A  D7 9F     
       03:841C  4A 31     
       03:841E  4B 99     
   77  03:8420  8C D0             dw $d08c,$3ff9,$a40c,$a80d,$3fb8,$a00d,$a00c,$3e8d
       03:8422  F9 3F     
       03:8424  0C A4     
       03:8426  0D A8     
       03:8428  B8 3F     
       03:842A  0D A0     
       03:842C  0C A0     
       03:842E  8D 3E     
   78  03:8430  0C A0             dw $a00c,$a00d,$3fb8,$a80d,$a40c,$3ff9,$d08c,$e88d
       03:8432  0D A0     
       03:8434  B8 3F     
       03:8436  0D A8     
       03:8438  0C A4     
       03:843A  F9 3F     
       03:843C  8C D0     
       03:843E  8D E8     
   79  03:8440  F1 EF             dw $eff1,$c000,$dbf1,$d7f0,$c041,$dff0,$dff1,$c1f0
       03:8442  00 C0     
       03:8444  F1 DB     
       03:8446  F0 D7     
       03:8448  41 C0     
       03:844A  F0 DF     
       03:844C  F1 DF     
       03:844E  F0 C1     
   80  03:8450  F1 DF             dw $dff1,$dff0,$c041,$d7f0,$dbf1,$c000,$eff1,$f7f0
       03:8452  F0 DF     
       03:8454  41 C0     
       03:8456  F0 D7     
       03:8458  F1 DB     
       03:845A  00 C0     
       03:845C  F1 EF     
       03:845E  F0 F7     
   81  03:8460  00 00             dw $0000,$0000,$0000,$0000,$0000,$0000,$0000,$0000
       03:8462  00 00     
       03:8464  00 00     
       03:8466  00 00     
       03:8468  00 00     
       03:846A  00 00     
       03:846C  00 00     
       03:846E  00 00     
   82  03:8470  00 00             dw $0000,$0000,$0000,$0000,$0000,$0000,$0000,$0000
       03:8472  00 00     
       03:8474  00 00     
       03:8476  00 00     
       03:8478  00 00     
       03:847A  00 00     
       03:847C  00 00     
       03:847E  00 00     
   83  03:8480  00 FC             dw $fc00,$1e00,$0180,$2060,$4a70,$b5b8,$9db8,$c9a8
       03:8482  00 1E     
       03:8484  80 01     
       03:8486  60 20     
       03:8488  70 4A     
       03:848A  B8 B5     
       03:848C  B8 9D     
       03:848E  A8 C9     
   84  03:8490  48 84             dw $8448,$93b8,$1c00,$1fa0,$fe00,$0000,$fc00,$0000
       03:8492  B8 93     
       03:8494  00 1C     
       03:8496  A0 1F     
       03:8498  00 FE     
       03:849A  00 00     
       03:849C  00 FC     
       03:849E  00 00     
   85  03:84A0  00 FC             dw $fc00,$0000,$e000,$1e00,$0de0,$4a50,$6250,$3640
       03:84A2  00 00     
       03:84A4  00 E0     
       03:84A6  00 1E     
       03:84A8  E0 0D     
       03:84AA  50 4A     
       03:84AC  50 62     
       03:84AE  40 36     
   86  03:84B0  E0 7D             dw $7de0,$61a0,$0010,$0040,$0180,$fe00,$fc00,$0000
       03:84B2  A0 61     
       03:84B4  10 00     
       03:84B6  40 00     
       03:84B8  80 01     
       03:84BA  00 FE     
       03:84BC  00 FC     
       03:84BE  00 00     
   87  03:84C0  00 08             dw $0800,$fe00,$1f80,$21e0,$7010,$8008,$8008,$8018
       03:84C2  00 FE     
       03:84C4  80 1F     
       03:84C6  E0 21     
       03:84C8  10 70     
       03:84CA  08 80     
       03:84CC  08 80     
       03:84CE  18 80     
   88  03:84D0  18 82             dw $8218,$8e58,$1ff0,$1fe0,$ff80,$fe00,$0800,$0000
       03:84D2  58 8E     
       03:84D4  F0 1F     
       03:84D6  E0 1F     
       03:84D8  80 FF     
       03:84DA  00 FE     
       03:84DC  00 08     
       03:84DE  00 00     
   89  03:84E0  00 08             dw $0800,$0000,$0000,$e020,$fc20,$0e20,$0620,$0620
       03:84E2  00 00     
       03:84E4  00 00     
       03:84E6  20 E0     
       03:84E8  20 FC     
       03:84EA  20 0E     
       03:84EC  20 06     
       03:84EE  20 06     
   90  03:84F0  20 06             dw $0620,$0e20,$fc20,$e020,$0000,$0000,$0800,$0000
       03:84F2  20 0E     
       03:84F4  20 FC     
       03:84F6  20 E0     
       03:84F8  00 00     
       03:84FA  00 00     
       03:84FC  00 08     
       03:84FE  00 00     
   91  03:8500  00 00             dw $0000,$0000,$0000,$0000,$0000,$0000,$0000,$0000
       03:8502  00 00     
       03:8504  00 00     
       03:8506  00 00     
       03:8508  00 00     
       03:850A  00 00     
       03:850C  00 00     
       03:850E  00 00     
   92  03:8510  00 00             dw $0000,$0000,$0000,$0000,$0000,$0000,$0000,$0000
       03:8512  00 00     
       03:8514  00 00     
       03:8516  00 00     
       03:8518  00 00     
       03:851A  00 00     
       03:851C  00 00     
       03:851E  00 00     
   93  03:8520  00 00             dw $0000,$0000,$0000,$0000,$0000,$0000,$0000,$0000
       03:8522  00 00     
       03:8524  00 00     
       03:8526  00 00     
       03:8528  00 00     
       03:852A  00 00     
       03:852C  00 00     
       03:852E  00 00     
   94  03:8530  00 00             dw $0000,$0000,$0000,$0000,$0000,$0000,$0000,$0000
       03:8532  00 00     
       03:8534  00 00     
       03:8536  00 00     
       03:8538  00 00     
       03:853A  00 00     
       03:853C  00 00     
       03:853E  00 00     
   95  03:8540  00 00             dw $0000,$0000,$0000,$0000,$0000,$0000,$0000,$0000
       03:8542  00 00     
       03:8544  00 00     
       03:8546  00 00     
       03:8548  00 00     
       03:854A  00 00     
       03:854C  00 00     
       03:854E  00 00     
   96  03:8550  00 00             dw $0000,$0000,$0000,$0000,$0000,$0000,$0000,$0000
       03:8552  00 00     
       03:8554  00 00     
       03:8556  00 00     
       03:8558  00 00     
       03:855A  00 00     
       03:855C  00 00     
       03:855E  00 00     
   97  03:8560  00 00             dw $0000,$0000,$0000,$0000,$0000,$0000,$0000,$0000
       03:8562  00 00     
       03:8564  00 00     
       03:8566  00 00     
       03:8568  00 00     
       03:856A  00 00     
       03:856C  00 00     
       03:856E  00 00     
   98  03:8570  00 00             dw $0000,$0000,$0000,$0000,$0000,$0000,$0000,$0000
       03:8572  00 00     
       03:8574  00 00     
       03:8576  00 00     
       03:8578  00 00     
       03:857A  00 00     
       03:857C  00 00     
       03:857E  00 00     
   99  03:8580  00 00             dw $0000,$0000,$0000,$0000,$0000,$0000,$0000,$0000
       03:8582  00 00     
       03:8584  00 00     
       03:8586  00 00     
       03:8588  00 00     
       03:858A  00 00     
       03:858C  00 00     
       03:858E  00 00     
  100  03:8590  00 00             dw $0000,$0000,$0000,$0000,$0000,$0000,$0000,$0000
       03:8592  00 00     
       03:8594  00 00     
       03:8596  00 00     
       03:8598  00 00     
       03:859A  00 00     
       03:859C  00 00     
       03:859E  00 00     
  101  03:85A0  00 00             dw $0000,$0000,$0000,$0000,$0000,$0000,$0000,$0000
       03:85A2  00 00     
       03:85A4  00 00     
       03:85A6  00 00     
       03:85A8  00 00     
       03:85AA  00 00     
       03:85AC  00 00     
       03:85AE  00 00     
  102  03:85B0  00 00             dw $0000,$0000,$0000,$0000,$0000,$0000,$0000,$0000
       03:85B2  00 00     
       03:85B4  00 00     
       03:85B6  00 00     
       03:85B8  00 00     
       03:85BA  00 00     
       03:85BC  00 00     
       03:85BE  00 00     
  103  03:85C0  00 00             dw $0000,$0000,$0000,$0000,$0000,$0000,$0000,$0000
       03:85C2  00 00     
       03:85C4  00 00     
       03:85C6  00 00     
       03:85C8  00 00     
       03:85CA  00 00     
       03:85CC  00 00     
       03:85CE  00 00     
  104  03:85D0  00 00             dw $0000,$0000,$0000,$0000,$0000,$0000,$0000,$0000
       03:85D2  00 00     
       03:85D4  00 00     
       03:85D6  00 00     
       03:85D8  00 00     
       03:85DA  00 00     
       03:85DC  00 00     
       03:85DE  00 00     
  105  03:85E0  00 00             dw $0000,$0000,$0000,$0000,$0000,$0000,$0000,$0000
       03:85E2  00 00     
       03:85E4  00 00     
       03:85E6  00 00     
       03:85E8  00 00     
       03:85EA  00 00     
       03:85EC  00 00     
       03:85EE  00 00     
  106  03:85F0  00 00             dw $0000,$0000,$0000,$0000,$0000,$0000,$0000,$0000
       03:85F2  00 00     
       03:85F4  00 00     
       03:85F6  00 00     
       03:85F8  00 00     
       03:85FA  00 00     
       03:85FC  00 00     
       03:85FE  00 00     
  107                     
  108  03:8600            spr_pattern2_bigexp_00:
  109  03:8600  00 00             dw $0000,$0000,$0000,$0000,$0000,$0000,$0000,$0000
       03:8602  00 00     
       03:8604  00 00     
       03:8606  00 00     
       03:8608  00 00     
       03:860A  00 00     
       03:860C  00 00     
       03:860E  00 00     
  110  03:8610  00 00             dw $0000,$0000,$0000,$0000,$0000,$0000,$0002,$0000
       03:8612  00 00     
       03:8614  00 00     
       03:8616  00 00     
       03:8618  00 00     
       03:861A  00 00     
       03:861C  02 00     
       03:861E  00 00     
  111  03:8620  00 00             dw $0000,$0000,$0000,$0000,$0000,$0000,$0000,$0000
       03:8622  00 00     
       03:8624  00 00     
       03:8626  00 00     
       03:8628  00 00     
       03:862A  00 00     
       03:862C  00 00     
       03:862E  00 00     
  112  03:8630  00 00             dw $0000,$0000,$0000,$0000,$0000,$0000,$0002,$0010
       03:8632  00 00     
       03:8634  00 00     
       03:8636  00 00     
       03:8638  00 00     
       03:863A  00 00     
       03:863C  02 00     
       03:863E  10 00     
  113  03:8640  00 00             dw $0000,$0000,$0000,$0000,$0000,$0000,$0000,$0000
       03:8642  00 00     
       03:8644  00 00     
       03:8646  00 00     
       03:8648  00 00     
       03:864A  00 00     
       03:864C  00 00     
       03:864E  00 00     
  114  03:8650  00 00             dw $0000,$0000,$0000,$0000,$0000,$0000,$0002,$0010
       03:8652  00 00     
       03:8654  00 00     
       03:8656  00 00     
       03:8658  00 00     
       03:865A  00 00     
       03:865C  02 00     
       03:865E  10 00     
  115  03:8660  00 00             dw $0000,$0000,$0000,$0000,$0000,$0000,$0000,$0000
       03:8662  00 00     
       03:8664  00 00     
       03:8666  00 00     
       03:8668  00 00     
       03:866A  00 00     
       03:866C  00 00     
       03:866E  00 00     
  116  03:8670  00 00             dw $0000,$0000,$0000,$0000,$0000,$0000,$0000,$0000
       03:8672  00 00     
       03:8674  00 00     
       03:8676  00 00     
       03:8678  00 00     
       03:867A  00 00     
       03:867C  00 00     
       03:867E  00 00     
  117  03:8680  00 00             dw $0000,$0000,$0000,$0000,$0000,$0000,$0004,$0000
       03:8682  00 00     
       03:8684  00 00     
       03:8686  00 00     
       03:8688  00 00     
       03:868A  00 00     
       03:868C  04 00     
       03:868E  00 00     
  118  03:8690  10 00             dw $0010,$0280,$0000,$0800,$a280,$3101,$100f,$8cf4
       03:8692  80 02     
       03:8694  00 00     
       03:8696  00 08     
       03:8698  80 A2     
       03:869A  01 31     
       03:869C  0F 10     
       03:869E  F4 8C     
  119  03:86A0  00 00             dw $0000,$0000,$0000,$0000,$0000,$0000,$0004,$0040
       03:86A2  00 00     
       03:86A4  00 00     
       03:86A6  00 00     
       03:86A8  00 00     
       03:86AA  00 00     
       03:86AC  04 00     
       03:86AE  40 00     
  120  03:86B0  10 00             dw $0010,$1281,$0005,$0841,$a293,$3136,$11bf,$8c7b
       03:86B2  81 12     
       03:86B4  05 00     
       03:86B6  41 08     
       03:86B8  93 A2     
       03:86BA  36 31     
       03:86BC  BF 11     
       03:86BE  7B 8C     
  121  03:86C0  00 00             dw $0000,$0000,$0000,$0000,$0000,$0000,$0004,$0040
       03:86C2  00 00     
       03:86C4  00 00     
       03:86C6  00 00     
       03:86C8  00 00     
       03:86CA  00 00     
       03:86CC  04 00     
       03:86CE  40 00     
  122  03:86D0  10 00             dw $0010,$1281,$0005,$0841,$a293,$3137,$11bf,$8cff
       03:86D2  81 12     
       03:86D4  05 00     
       03:86D6  41 08     
       03:86D8  93 A2     
       03:86DA  37 31     
       03:86DC  BF 11     
       03:86DE  FF 8C     
  123  03:86E0  00 00             dw $0000,$0000,$0000,$0000,$0000,$0000,$0000,$0000
       03:86E2  00 00     
       03:86E4  00 00     
       03:86E6  00 00     
       03:86E8  00 00     
       03:86EA  00 00     
       03:86EC  00 00     
       03:86EE  00 00     
  124  03:86F0  00 00             dw $0000,$0000,$0000,$0000,$0000,$0000,$0000,$0000
       03:86F2  00 00     
       03:86F4  00 00     
       03:86F6  00 00     
       03:86F8  00 00     
       03:86FA  00 00     
       03:86FC  00 00     
       03:86FE  00 00     
  125  03:8700  00 00             dw $0000,$000c,$0006,$0000,$0010,$0000,$0014,$0080
       03:8702  0C 00     
       03:8704  06 00     
       03:8706  00 00     
       03:8708  10 00     
       03:870A  00 00     
       03:870C  14 00     
       03:870E  80 00     
  126  03:8710  00 00             dw $0000,$0021,$0203,$0081,$0006,$0002,$000e,$0002
       03:8712  21 00     
       03:8714  03 02     
       03:8716  81 00     
       03:8718  06 00     
       03:871A  02 00     
       03:871C  0E 00     
       03:871E  02 00     
  127  03:8720  00 00             dw $0000,$008c,$0026,$0000,$0112,$0000,$0016,$0083
       03:8722  8C 00     
       03:8724  26 00     
       03:8726  00 00     
       03:8728  12 01     
       03:872A  00 00     
       03:872C  16 00     
       03:872E  83 00     
  128  03:8730  00 00             dw $0000,$0025,$0203,$0087,$0007,$001f,$0073,$000f
       03:8732  25 00     
       03:8734  03 02     
       03:8736  87 00     
       03:8738  07 00     
       03:873A  1F 00     
       03:873C  73 00     
       03:873E  0F 00     
  129  03:8740  00 00             dw $0000,$008c,$0026,$0000,$0112,$0000,$0016,$0083
       03:8742  8C 00     
       03:8744  26 00     
       03:8746  00 00     
       03:8748  12 01     
       03:874A  00 00     
       03:874C  16 00     
       03:874E  83 00     
  130  03:8750  00 00             dw $0000,$0025,$0203,$0087,$0007,$001f,$007f,$000f
       03:8752  25 00     
       03:8754  03 02     
       03:8756  87 00     
       03:8758  07 00     
       03:875A  1F 00     
       03:875C  7F 00     
       03:875E  0F 00     
  131  03:8760  00 00             dw $0000,$0000,$0000,$0000,$0000,$0000,$0000,$0000
       03:8762  00 00     
       03:8764  00 00     
       03:8766  00 00     
       03:8768  00 00     
       03:876A  00 00     
       03:876C  00 00     
       03:876E  00 00     
  132  03:8770  00 00             dw $0000,$0000,$0000,$0000,$0000,$0000,$0000,$0000
       03:8772  00 00     
       03:8774  00 00     
       03:8776  00 00     
       03:8778  00 00     
       03:877A  00 00     
       03:877C  00 00     
       03:877E  00 00     
  133  03:8780  AE 09             dw $09ae,$0660,$2707,$1a18,$bce5,$793e,$52d0,$a4e7
       03:8782  60 06     
       03:8784  07 27     
       03:8786  18 1A     
       03:8788  E5 BC     
       03:878A  3E 79     
       03:878C  D0 52     
       03:878E  E7 A4     
  134  03:8790  1E 93             dw $931e,$4559,$9276,$4cc1,$b997,$892f,$295f,$a5af
       03:8792  59 45     
       03:8794  76 92     
       03:8796  C1 4C     
       03:8798  97 B9     
       03:879A  2F 89     
       03:879C  5F 29     
       03:879E  AF A5     
  135  03:87A0  DF 2F             dw $2fdf,$03ff,$bdf8,$2fe6,$ff10,$aec0,$7d00,$fa07
       03:87A2  FF 03     
       03:87A4  F8 BD     
       03:87A6  E6 2F     
       03:87A8  10 FF     
       03:87AA  C0 AE     
       03:87AC  00 7D     
       03:87AE  07 FA     
  136  03:87B0  1F EC             dw $ec1f,$f81e,$6879,$f0fe,$c1e8,$e1d0,$c1a0,$d1d0
       03:87B2  1E F8     
       03:87B4  79 68     
       03:87B6  FE F0     
       03:87B8  E8 C1     
       03:87BA  D0 E1     
       03:87BC  A0 C1     
       03:87BE  D0 D1     
  137  03:87C0  FF 2F             dw $2fff,$07ff,$bfff,$3fff,$ffff,$ffff,$7fff,$fff8
       03:87C2  FF 07     
       03:87C4  FF BF     
       03:87C6  FF 3F     
       03:87C8  FF FF     
       03:87CA  FF FF     
       03:87CC  FF 7F     
       03:87CE  F8 FF     
  138  03:87D0  E0 FF             dw $ffe0,$ffe0,$ff80,$ff00,$fe00,$fe00,$fe00,$fe00
       03:87D2  E0 FF     
       03:87D4  80 FF     
       03:87D6  00 FF     
       03:87D8  00 FE     
       03:87DA  00 FE     
       03:87DC  00 FE     
       03:87DE  00 FE     
  139  03:87E0  00 00             dw $0000,$0000,$0000,$0000,$0000,$0000,$0000,$0000
       03:87E2  00 00     
       03:87E4  00 00     
       03:87E6  00 00     
       03:87E8  00 00     
       03:87EA  00 00     
       03:87EC  00 00     
       03:87EE  00 00     
  140  03:87F0  00 00             dw $0000,$0000,$0000,$0000,$0000,$0000,$0000,$0000
       03:87F2  00 00     
       03:87F4  00 00     
       03:87F6  00 00     
       03:87F8  00 00     
       03:87FA  00 00     
       03:87FC  00 00     
       03:87FE  00 00     
  141                     
  142  03:8800            spr_pattern2_bigexp_01:
  143  03:8800  00 00             dw $0000,$0000,$0000,$0000,$0000,$0000,$0000,$0000
       03:8802  00 00     
       03:8804  00 00     
       03:8806  00 00     
       03:8808  00 00     
       03:880A  00 00     
       03:880C  00 00     
       03:880E  00 00     
  144  03:8810  00 00             dw $0000,$0000,$0000,$0000,$0004,$0001,$0000,$0012
       03:8812  00 00     
       03:8814  00 00     
       03:8816  00 00     
       03:8818  04 00     
       03:881A  01 00     
       03:881C  00 00     
       03:881E  12 00     
  145  03:8820  00 00             dw $0000,$0000,$0000,$0000,$0000,$0000,$0000,$0000
       03:8822  00 00     
       03:8824  00 00     
       03:8826  00 00     
       03:8828  00 00     
       03:882A  00 00     
       03:882C  00 00     
       03:882E  00 00     
  146  03:8830  00 00             dw $0000,$0000,$0000,$0000,$0005,$0003,$0003,$0017
       03:8832  00 00     
       03:8834  00 00     
       03:8836  00 00     
       03:8838  05 00     
       03:883A  03 00     
       03:883C  03 00     
       03:883E  17 00     
  147  03:8840  00 00             dw $0000,$0000,$0000,$0000,$0000,$0000,$0000,$0000
       03:8842  00 00     
       03:8844  00 00     
       03:8846  00 00     
       03:8848  00 00     
       03:884A  00 00     
       03:884C  00 00     
       03:884E  00 00     
  148  03:8850  00 00             dw $0000,$0000,$0000,$0000,$0005,$0003,$0003,$0017
       03:8852  00 00     
       03:8854  00 00     
       03:8856  00 00     
       03:8858  05 00     
       03:885A  03 00     
       03:885C  03 00     
       03:885E  17 00     
  149  03:8860  00 00             dw $0000,$0000,$0000,$0000,$0000,$0000,$0000,$0000
       03:8862  00 00     
       03:8864  00 00     
       03:8866  00 00     
       03:8868  00 00     
       03:886A  00 00     
       03:886C  00 00     
       03:886E  00 00     
  150  03:8870  00 00             dw $0000,$0000,$0000,$0000,$0000,$0000,$0000,$0000
       03:8872  00 00     
       03:8874  00 00     
       03:8876  00 00     
       03:8878  00 00     
       03:887A  00 00     
       03:887C  00 00     
       03:887E  00 00     
  151  03:8880  00 00             dw $0000,$0000,$0000,$0000,$0000,$0001,$0040,$0402
       03:8882  00 00     
       03:8884  00 00     
       03:8886  00 00     
       03:8888  00 00     
       03:888A  01 00     
       03:888C  40 00     
       03:888E  02 04     
  152  03:8890  7B 10             dw $107b,$0397,$0cfe,$1b80,$6e61,$b17f,$6999,$d780
       03:8892  97 03     
       03:8894  FE 0C     
       03:8896  80 1B     
       03:8898  61 6E     
       03:889A  7F B1     
       03:889C  99 69     
       03:889E  80 D7     
  153  03:88A0  00 00             dw $0000,$0000,$0000,$0000,$0000,$0001,$0040,$0433
       03:88A2  00 00     
       03:88A4  00 00     
       03:88A6  00 00     
       03:88A8  00 00     
       03:88AA  01 00     
       03:88AC  40 00     
       03:88AE  33 04     
  154  03:88B0  FF 11             dw $11ff,$07fb,$3fff,$ddff,$fffe,$df80,$fe66,$7800
       03:88B2  FB 07     
       03:88B4  FF 3F     
       03:88B6  FF DD     
       03:88B8  FE FF     
       03:88BA  80 DF     
       03:88BC  66 FE     
       03:88BE  00 78     
  155  03:88C0  00 00             dw $0000,$0000,$0000,$0000,$0000,$0001,$0040,$0433
       03:88C2  00 00     
       03:88C4  00 00     
       03:88C6  00 00     
       03:88C8  00 00     
       03:88CA  01 00     
       03:88CC  40 00     
       03:88CE  33 04     
  156  03:88D0  FF 11             dw $11ff,$07ff,$3fff,$dfff,$ffff,$ffff,$ffff,$ffff
       03:88D2  FF 07     
       03:88D4  FF 3F     
       03:88D6  FF DF     
       03:88D8  FF FF     
       03:88DA  FF FF     
       03:88DC  FF FF     
       03:88DE  FF FF     
  157  03:88E0  00 00             dw $0000,$0000,$0000,$0000,$0000,$0000,$0000,$0000
       03:88E2  00 00     
       03:88E4  00 00     
       03:88E6  00 00     
       03:88E8  00 00     
       03:88EA  00 00     
       03:88EC  00 00     
       03:88EE  00 00     
  158  03:88F0  00 00             dw $0000,$0000,$0000,$0000,$0000,$0000,$0000,$0000
       03:88F2  00 00     
       03:88F4  00 00     
       03:88F6  00 00     
       03:88F8  00 00     
       03:88FA  00 00     
       03:88FC  00 00     
       03:88FE  00 00     
  159  03:8900  43 00             dw $0043,$0005,$0059,$0006,$002c,$007d,$03a9,$015b
       03:8902  05 00     
       03:8904  59 00     
       03:8906  06 00     
       03:8908  2C 00     
       03:890A  7D 00     
       03:890C  A9 03     
       03:890E  5B 01     
  160  03:8910  B6 05             dw $05b6,$07ac,$07cc,$0f5c,$0d59,$0d48,$1f9b,$1e1b
       03:8912  AC 07     
       03:8914  CC 07     
       03:8916  5C 0F     
       03:8918  59 0D     
       03:891A  48 0D     
       03:891C  9B 1F     
       03:891E  1B 1E     
  161  03:8920  57 00             dw $0057,$000f,$005f,$003b,$0077,$00ff,$03fe,$01ee
       03:8922  0F 00     
       03:8924  5F 00     
       03:8926  3B 00     
       03:8928  77 00     
       03:892A  FF 00     
       03:892C  FE 03     
       03:892E  EE 01     
  162  03:8930  DD 07             dw $07dd,$07fa,$07f0,$0ff0,$0ff4,$0ff4,$1fe1,$1fe1
       03:8932  FA 07     
       03:8934  F0 07     
       03:8936  F0 0F     
       03:8938  F4 0F     
       03:893A  F4 0F     
       03:893C  E1 1F     
       03:893E  E1 1F     
  163  03:8940  57 00             dw $0057,$000f,$005f,$003f,$007f,$00ff,$03ff,$01ff
       03:8942  0F 00     
       03:8944  5F 00     
       03:8946  3F 00     
       03:8948  7F 00     
       03:894A  FF 00     
       03:894C  FF 03     
       03:894E  FF 01     
  164  03:8950  FF 07             dw $07ff,$07ff,$07ff,$0fff,$0fff,$0fff,$1ffe,$1ffe
       03:8952  FF 07     
       03:8954  FF 07     
       03:8956  FF 0F     
       03:8958  FF 0F     
       03:895A  FF 0F     
       03:895C  FE 1F     
       03:895E  FE 1F     
  165  03:8960  00 00             dw $0000,$0000,$0000,$0000,$0000,$0040,$0180,$0100
       03:8962  00 00     
       03:8964  00 00     
       03:8966  00 00     
       03:8968  00 00     
       03:896A  40 00     
       03:896C  80 01     
       03:896E  00 01     
  166  03:8970  00 01             dw $0100,$0600,$0600,$0e00,$0c00,$0c00,$1e00,$1e00
       03:8972  00 06     
       03:8974  00 06     
       03:8976  00 0E     
       03:8978  00 0C     
       03:897A  00 0C     
       03:897C  00 1E     
       03:897E  00 1E     
  167  03:8980  66 B8             dw $b866,$31ff,$6593,$e600,$9e33,$8ccc,$900b,$b277
       03:8982  FF 31     
       03:8984  93 65     
       03:8986  00 E6     
       03:8988  33 9E     
       03:898A  CC 8C     
       03:898C  0B 90     
       03:898E  77 B2     
  168  03:8990  BF 20             dw $20bf,$eb7f,$c1ff,$cbff,$97ff,$8bff,$a7ff,$97ff
       03:8992  7F EB     
       03:8994  FF C1     
       03:8996  FF CB     
       03:8998  FF 97     
       03:899A  FF 8B     
       03:899C  FF A7     
       03:899E  FF 97     
  169  03:89A0  00 E6             dw $e600,$c87f,$d193,$867f,$4fff,$4ff3,$17f4,$1788
       03:89A2  7F C8     
       03:89A4  93 D1     
       03:89A6  7F 86     
       03:89A8  FF 4F     
       03:89AA  F3 4F     
       03:89AC  F4 17     
       03:89AE  88 17     
  170  03:89B0  40 2F             dw $2f40,$7c80,$fe00,$f400,$b800,$b400,$f800,$e800
       03:89B2  80 7C     
       03:89B4  00 FE     
       03:89B6  00 F4     
       03:89B8  00 B8     
       03:89BA  00 B4     
       03:89BC  00 F8     
       03:89BE  00 E8     
  171  03:89C0  FF FF             dw $ffff,$ff80,$fe6c,$f980,$f000,$f000,$e800,$e800
       03:89C2  80 FF     
       03:89C4  6C FE     
       03:89C6  80 F9     
       03:89C8  00 F0     
       03:89CA  00 F0     
       03:89CC  00 E8     
       03:89CE  00 E8     
  172  03:89D0  00 D0             dw $d000,$8000,$0000,$0000,$4000,$4000,$0000,$0000
       03:89D2  00 80     
       03:89D4  00 00     
       03:89D6  00 00     
       03:89D8  00 40     
       03:89DA  00 40     
       03:89DC  00 00     
       03:89DE  00 00     
  173  03:89E0  00 00             dw $0000,$0000,$0000,$0000,$0000,$0000,$0000,$0000
       03:89E2  00 00     
       03:89E4  00 00     
       03:89E6  00 00     
       03:89E8  00 00     
       03:89EA  00 00     
       03:89EC  00 00     
       03:89EE  00 00     
  174  03:89F0  00 00             dw $0000,$0000,$0000,$0000,$0000,$0000,$0000,$0000
       03:89F2  00 00     
       03:89F4  00 00     
       03:89F6  00 00     
       03:89F8  00 00     
       03:89FA  00 00     
       03:89FC  00 00     
       03:89FE  00 00     
  175                     
  176  03:8A00            spr_pattern2_bigexp_02:
  177  03:8A00  00 00             dw $0000,$0000,$0000,$0000,$0000,$0000,$0000,$0100
       03:8A02  00 00     
       03:8A04  00 00     
       03:8A06  00 00     
       03:8A08  00 00     
       03:8A0A  00 00     
       03:8A0C  00 00     
       03:8A0E  00 01     
  178  03:8A10  81 00             dw $0081,$0022,$0064,$0008,$0019,$0023,$0045,$008f
       03:8A12  22 00     
       03:8A14  64 00     
       03:8A16  08 00     
       03:8A18  19 00     
       03:8A1A  23 00     
       03:8A1C  45 00     
       03:8A1E  8F 00     
  179  03:8A20  00 00             dw $0000,$0000,$0000,$0000,$0000,$0000,$0000,$0100
       03:8A22  00 00     
       03:8A24  00 00     
       03:8A26  00 00     
       03:8A28  00 00     
       03:8A2A  00 00     
       03:8A2C  00 00     
       03:8A2E  00 01     
  180  03:8A30  81 00             dw $0081,$0063,$0057,$0027,$000a,$0036,$007f,$00f2
       03:8A32  63 00     
       03:8A34  57 00     
       03:8A36  27 00     
       03:8A38  0A 00     
       03:8A3A  36 00     
       03:8A3C  7F 00     
       03:8A3E  F2 00     
  181  03:8A40  00 00             dw $0000,$0000,$0000,$0000,$0000,$0000,$0000,$0100
       03:8A42  00 00     
       03:8A44  00 00     
       03:8A46  00 00     
       03:8A48  00 00     
       03:8A4A  00 00     
       03:8A4C  00 00     
       03:8A4E  00 01     
  182  03:8A50  81 00             dw $0081,$0063,$0077,$003f,$0017,$0039,$0078,$00fc
       03:8A52  63 00     
       03:8A54  77 00     
       03:8A56  3F 00     
       03:8A58  17 00     
       03:8A5A  39 00     
       03:8A5C  78 00     
       03:8A5E  FC 00     
  183  03:8A60  00 00             dw $0000,$0000,$0000,$0000,$0000,$0000,$0000,$0000
       03:8A62  00 00     
       03:8A64  00 00     
       03:8A66  00 00     
       03:8A68  00 00     
       03:8A6A  00 00     
       03:8A6C  00 00     
       03:8A6E  00 00     
  184  03:8A70  00 00             dw $0000,$0000,$0000,$0000,$0000,$0000,$0000,$0000
       03:8A72  00 00     
       03:8A74  00 00     
       03:8A76  00 00     
       03:8A78  00 00     
       03:8A7A  00 00     
       03:8A7C  00 00     
       03:8A7E  00 00     
  185  03:8A80  01 00             dw $0001,$0000,$0004,$009b,$0161,$0e1b,$b0ff,$03f4
       03:8A82  00 00     
       03:8A84  04 00     
       03:8A86  9B 00     
       03:8A88  61 01     
       03:8A8A  1B 0E     
       03:8A8C  FF B0     
       03:8A8E  F4 03     
  186  03:8A90  00 8F             dw $8f00,$1c02,$702f,$e57f,$83fd,$0fd2,$dfa0,$7a0a
       03:8A92  02 1C     
       03:8A94  2F 70     
       03:8A96  7F E5     
       03:8A98  FD 83     
       03:8A9A  D2 0F     
       03:8A9C  A0 DF     
       03:8A9E  0A 7A     
  187  03:8AA0  01 00             dw $0001,$0001,$0005,$009e,$01fe,$0fe4,$bf00,$7c00
       03:8AA2  01 00     
       03:8AA4  05 00     
       03:8AA6  9E 00     
       03:8AA8  FE 01     
       03:8AAA  E4 0F     
       03:8AAC  00 BF     
       03:8AAE  00 7C     
  188  03:8AB0  00 F0             dw $f000,$e002,$802f,$057f,$03ff,$0fff,$dfff,$fff5
       03:8AB2  02 E0     
       03:8AB4  2F 80     
       03:8AB6  7F 05     
       03:8AB8  FF 03     
       03:8ABA  FF 0F     
       03:8ABC  FF DF     
       03:8ABE  F5 FF     
  189  03:8AC0  01 00             dw $0001,$0001,$0005,$009f,$01ff,$0fff,$bfff,$7fff
       03:8AC2  01 00     
       03:8AC4  05 00     
       03:8AC6  9F 00     
       03:8AC8  FF 01     
       03:8ACA  FF 0F     
       03:8ACC  FF BF     
       03:8ACE  FF 7F     
  190  03:8AD0  FF FF             dw $ffff,$fffd,$ffd0,$fa80,$fc00,$f000,$2000,$0000
       03:8AD2  FD FF     
       03:8AD4  D0 FF     
       03:8AD6  80 FA     
       03:8AD8  00 FC     
       03:8ADA  00 F0     
       03:8ADC  00 20     
       03:8ADE  00 00     
  191  03:8AE0  00 00             dw $0000,$0000,$0000,$0000,$0000,$0000,$0000,$0000
       03:8AE2  00 00     
       03:8AE4  00 00     
       03:8AE6  00 00     
       03:8AE8  00 00     
       03:8AEA  00 00     
       03:8AEC  00 00     
       03:8AEE  00 00     
  192  03:8AF0  00 00             dw $0000,$0000,$0000,$0000,$0000,$0000,$0000,$0000
       03:8AF2  00 00     
       03:8AF4  00 00     
       03:8AF6  00 00     
       03:8AF8  00 00     
       03:8AFA  00 00     
       03:8AFC  00 00     
       03:8AFE  00 00     
  193  03:8B00  9A 00             dw $009a,$0131,$0431,$026b,$04c6,$0cd7,$1d8e,$199c
       03:8B02  31 01     
       03:8B04  31 04     
       03:8B06  6B 02     
       03:8B08  C6 04     
       03:8B0A  D7 0C     
       03:8B0C  8E 1D     
       03:8B0E  9C 19     
  194  03:8B10  0E 3B             dw $3b0e,$331c,$3b38,$7714,$6238,$7669,$f634,$f279
       03:8B12  1C 33     
       03:8B14  38 3B     
       03:8B16  14 77     
       03:8B18  38 62     
       03:8B1A  69 76     
       03:8B1C  34 F6     
       03:8B1E  79 F2     
  195  03:8B20  E3 00             dw $00e3,$01c1,$07c1,$038b,$0707,$0f17,$1e0f,$1e1f
       03:8B22  C1 01     
       03:8B24  C1 07     
       03:8B26  8B 03     
       03:8B28  07 07     
       03:8B2A  17 0F     
       03:8B2C  0F 1E     
       03:8B2E  1F 1E     
  196  03:8B30  0F 3C             dw $3c0f,$3c1f,$3c3f,$781f,$7c3f,$787e,$f83f,$fc7e
       03:8B32  1F 3C     
       03:8B34  3F 3C     
       03:8B36  1F 78     
       03:8B38  3F 7C     
       03:8B3A  7E 78     
       03:8B3C  3F F8     
       03:8B3E  7E FC     
  197  03:8B40  FC 00             dw $00fc,$01fe,$07fe,$03f4,$07f8,$0fe8,$1ff0,$1fe0
       03:8B42  FE 01     
       03:8B44  FE 07     
       03:8B46  F4 03     
       03:8B48  F8 07     
       03:8B4A  E8 0F     
       03:8B4C  F0 1F     
       03:8B4E  E0 1F     
  198  03:8B50  F0 3F             dw $3ff0,$3fe0,$3fc0,$7fe0,$7fc0,$7f80,$ffc0,$ff80
       03:8B52  E0 3F     
       03:8B54  C0 3F     
       03:8B56  E0 7F     
       03:8B58  C0 7F     
       03:8B5A  80 7F     
       03:8B5C  C0 FF     
       03:8B5E  80 FF     
  199  03:8B60  00 00             dw $0000,$0000,$0000,$0000,$0000,$0800,$1800,$1000
       03:8B62  00 00     
       03:8B64  00 00     
       03:8B66  00 00     
       03:8B68  00 00     
       03:8B6A  00 08     
       03:8B6C  00 18     
       03:8B6E  00 10     
  200  03:8B70  00 30             dw $3000,$2000,$3000,$6000,$4000,$6000,$e000,$e000
       03:8B72  00 20     
       03:8B74  00 30     
       03:8B76  00 60     
       03:8B78  00 40     
       03:8B7A  00 60     
       03:8B7C  00 E0     
       03:8B7E  00 E0     
  201  03:8B80  25 84             dw $8425,$615f,$7eff,$3fff,$5fff,$3fff,$4fff,$2fff
       03:8B82  5F 61     
       03:8B84  FF 7E     
       03:8B86  FF 3F     
       03:8B88  FF 5F     
       03:8B8A  FF 3F     
       03:8B8C  FF 4F     
       03:8B8E  FF 2F     
  202  03:8B90  FF 77             dw $77ff,$bbff,$7fff,$3fff,$ffff,$7fff,$ffff,$7fff
       03:8B92  FF BB     
       03:8B94  FF 7F     
       03:8B96  FF 3F     
       03:8B98  FF FF     
       03:8B9A  FF 7F     
       03:8B9C  FF FF     
       03:8B9E  FF 7F     
  203  03:8BA0  DA 7F             dw $7fda,$9ea0,$8100,$c000,$a000,$c000,$b000,$d000
       03:8BA2  A0 9E     
       03:8BA4  00 81     
       03:8BA6  00 C0     
       03:8BA8  00 A0     
       03:8BAA  00 C0     
       03:8BAC  00 B0     
       03:8BAE  00 D0     
  204  03:8BB0  00 88             dw $8800,$4400,$8000,$c000,$0000,$8000,$0000,$8000
       03:8BB2  00 44     
       03:8BB4  00 80     
       03:8BB6  00 C0     
       03:8BB8  00 00     
       03:8BBA  00 80     
       03:8BBC  00 00     
       03:8BBE  00 80     
  205  03:8BC0  00 00             dw $0000,$0000,$0000,$0000,$0000,$0000,$0000,$0000
       03:8BC2  00 00     
       03:8BC4  00 00     
       03:8BC6  00 00     
       03:8BC8  00 00     
       03:8BCA  00 00     
       03:8BCC  00 00     
       03:8BCE  00 00     
  206  03:8BD0  00 00             dw $0000,$0000,$0000,$0000,$0000,$0000,$0000,$0000
       03:8BD2  00 00     
       03:8BD4  00 00     
       03:8BD6  00 00     
       03:8BD8  00 00     
       03:8BDA  00 00     
       03:8BDC  00 00     
       03:8BDE  00 00     
  207  03:8BE0  00 00             dw $0000,$0000,$0000,$0000,$0000,$0000,$0000,$0000
       03:8BE2  00 00     
       03:8BE4  00 00     
       03:8BE6  00 00     
       03:8BE8  00 00     
       03:8BEA  00 00     
       03:8BEC  00 00     
       03:8BEE  00 00     
  208  03:8BF0  00 00             dw $0000,$0000,$0000,$0000,$0000,$0000,$0000,$0000
       03:8BF2  00 00     
       03:8BF4  00 00     
       03:8BF6  00 00     
       03:8BF8  00 00     
       03:8BFA  00 00     
       03:8BFC  00 00     
       03:8BFE  00 00     
  209                     
  210  03:8C00            spr_pattern2_boath_00:
  211  03:8C00  00 00             dw $0000,$0000,$0000,$0002,$0000,$0002,$0001,$0002
       03:8C02  00 00     
       03:8C04  00 00     
       03:8C06  02 00     
       03:8C08  00 00     
       03:8C0A  02 00     
       03:8C0C  01 00     
       03:8C0E  02 00     
  212  03:8C10  4F 00             dw $004f,$0058,$01f0,$00f8,$00eb,$02eb,$06cb,$07cb
       03:8C12  58 00     
       03:8C14  F0 01     
       03:8C16  F8 00     
       03:8C18  EB 00     
       03:8C1A  EB 02     
       03:8C1C  CB 06     
       03:8C1E  CB 07     
  213  03:8C20  01 00             dw $0001,$0000,$0001,$0002,$0081,$0002,$0107,$000f
       03:8C22  00 00     
       03:8C24  01 00     
       03:8C26  02 00     
       03:8C28  81 00     
       03:8C2A  02 00     
       03:8C2C  07 01     
       03:8C2E  0F 00     
  214  03:8C30  DF 02             dw $02df,$00d8,$03e0,$01e7,$01c3,$02c3,$0683,$0782
       03:8C32  D8 00     
       03:8C34  E0 03     
       03:8C36  E7 01     
       03:8C38  C3 01     
       03:8C3A  C3 02     
       03:8C3C  83 06     
       03:8C3E  82 07     
  215  03:8C40  00 00             dw $0000,$0000,$0004,$0000,$0008,$0000,$0010,$0000
       03:8C42  00 00     
       03:8C44  04 00     
       03:8C46  00 00     
       03:8C48  08 00     
       03:8C4A  00 00     
       03:8C4C  10 00     
       03:8C4E  00 00     
  216  03:8C50  48 04             dw $0448,$0057,$01ff,$00f8,$00fc,$02fc,$06fc,$07fd
       03:8C52  57 00     
       03:8C54  FF 01     
       03:8C56  F8 00     
       03:8C58  FC 00     
       03:8C5A  FC 02     
       03:8C5C  FC 06     
       03:8C5E  FD 07     
  217  03:8C60  01 00             dw $0001,$0002,$0047,$000e,$008d,$010a,$051f,$049f
       03:8C62  02 00     
       03:8C64  47 00     
       03:8C66  0E 00     
       03:8C68  8D 00     
       03:8C6A  0A 01     
       03:8C6C  1F 05     
       03:8C6E  9F 04     
  218  03:8C70  F8 06             dw $06f8,$04f0,$03e0,$03e0,$03c0,$03c0,$0780,$0780
       03:8C72  F0 04     
       03:8C74  E0 03     
       03:8C76  E0 03     
       03:8C78  C0 03     
       03:8C7A  C0 03     
       03:8C7C  80 07     
       03:8C7E  80 07     
  219  03:8C80  00 80             dw $8000,$8000,$0000,$0000,$0000,$0000,$0000,$c000
       03:8C82  00 80     
       03:8C84  00 00     
       03:8C86  00 00     
       03:8C88  00 00     
       03:8C8A  00 00     
       03:8C8C  00 00     
       03:8C8E  00 C0     
  220  03:8C90  00 E0             dw $e000,$1000,$0800,$0800,$c400,$c400,$c200,$c200
       03:8C92  00 10     
       03:8C94  00 08     
       03:8C96  00 08     
       03:8C98  00 C4     
       03:8C9A  00 C4     
       03:8C9C  00 C2     
       03:8C9E  00 C2     
  221  03:8CA0  00 80             dw $8000,$8000,$0000,$0000,$0000,$8000,$2000,$8000
       03:8CA2  00 80     
       03:8CA4  00 00     
       03:8CA6  00 00     
       03:8CA8  00 00     
       03:8CAA  00 80     
       03:8CAC  00 20     
       03:8CAE  00 80     
  222  03:8CB0  00 E0             dw $e000,$1000,$0800,$e800,$e400,$e400,$e200,$6200
       03:8CB2  00 10     
       03:8CB4  00 08     
       03:8CB6  00 E8     
       03:8CB8  00 E4     
       03:8CBA  00 E4     
       03:8CBC  00 E2     
       03:8CBE  00 62     
  223  03:8CC0  00 00             dw $0000,$0000,$2000,$0000,$1000,$0000,$0800,$0800
       03:8CC2  00 00     
       03:8CC4  00 20     
       03:8CC6  00 00     
       03:8CC8  00 10     
       03:8CCA  00 00     
       03:8CCC  00 08     
       03:8CCE  00 08     
  224  03:8CD0  20 04             dw $0420,$e400,$f000,$1040,$1840,$1880,$1c80,$9c00
       03:8CD2  00 E4     
       03:8CD4  00 F0     
       03:8CD6  40 10     
       03:8CD8  40 18     
       03:8CDA  80 18     
       03:8CDC  80 1C     
       03:8CDE  00 9C     
  225  03:8CE0  00 80             dw $8000,$c000,$6200,$b000,$7100,$d080,$38a0,$d920
       03:8CE2  00 C0     
       03:8CE4  00 62     
       03:8CE6  00 B0     
       03:8CE8  00 71     
       03:8CEA  80 D0     
       03:8CEC  A0 38     
       03:8CEE  20 D9     
  226  03:8CF0  60 0D             dw $0d60,$0520,$0040,$00c0,$00c0,$0080,$0080,$0000
       03:8CF2  20 05     
       03:8CF4  40 00     
       03:8CF6  C0 00     
       03:8CF8  C0 00     
       03:8CFA  80 00     
       03:8CFC  80 00     
       03:8CFE  00 00     
  227  03:8D00  AB 0F             dw $0fab,$0fa8,$0faf,$0fa0,$0f80,$0e87,$0f9f,$0dbf
       03:8D02  A8 0F     
       03:8D04  AF 0F     
       03:8D06  A0 0F     
       03:8D08  80 0F     
       03:8D0A  87 0E     
       03:8D0C  9F 0F     
       03:8D0E  BF 0D     
  228  03:8D10  BF 0F             dw $0fbf,$0bce,$0fdd,$0afb,$07fc,$0eff,$0fef,$0baf
       03:8D12  CE 0B     
       03:8D14  DD 0F     
       03:8D16  FB 0A     
       03:8D18  FC 07     
       03:8D1A  FF 0E     
       03:8D1C  EF 0F     
       03:8D1E  AF 0B     
  229  03:8D20  03 0F             dw $0f03,$0f00,$0f00,$0f00,$0f00,$0f00,$0f02,$0f11
       03:8D22  00 0F     
       03:8D24  00 0F     
       03:8D26  00 0F     
       03:8D28  00 0F     
       03:8D2A  00 0F     
       03:8D2C  02 0F     
       03:8D2E  11 0F     
  230  03:8D30  0F 0F             dw $0f0f,$0f07,$0f0f,$0f1f,$0f1f,$0f2f,$0f06,$0f04
       03:8D32  07 0F     
       03:8D34  0F 0F     
       03:8D36  1F 0F     
       03:8D38  1F 0F     
       03:8D3A  2F 0F     
       03:8D3C  06 0F     
       03:8D3E  04 0F     
  231  03:8D40  FC 0D             dw $0dfc,$0dff,$0bff,$0bff,$06ff,$06ff,$0dff,$0dff
       03:8D42  FF 0D     
       03:8D44  FF 0B     
       03:8D46  FF 0B     
       03:8D48  FF 06     
       03:8D4A  FF 06     
       03:8D4C  FF 0D     
       03:8D4E  FF 0D     
  232  03:8D50  FF 0D             dw $0dff,$09ff,$0bff,$02ff,$02ff,$06ff,$0aff,$0bff
       03:8D52  FF 09     
       03:8D54  FF 0B     
       03:8D56  FF 02     
       03:8D58  FF 02     
       03:8D5A  FF 06     
       03:8D5C  FF 0A     
       03:8D5E  FF 0B     
  233  03:8D60  00 0F             dw $0f00,$0f00,$0f00,$0f00,$0f00,$0f00,$0f02,$0f11
       03:8D62  00 0F     
       03:8D64  00 0F     
       03:8D66  00 0F     
       03:8D68  00 0F     
       03:8D6A  00 0F     
       03:8D6C  02 0F     
       03:8D6E  11 0F     
  234  03:8D70  0D 0F             dw $0f0d,$0f06,$0f04,$0f19,$0f1c,$0f2b,$0f06,$0f04
       03:8D72  06 0F     
       03:8D74  04 0F     
       03:8D76  19 0F     
       03:8D78  1C 0F     
       03:8D7A  2B 0F     
       03:8D7C  06 0F     
       03:8D7E  04 0F     
  235  03:8D80  00 C5             dw $c500,$0500,$e500,$0500,$0100,$e100,$1900,$bd00
       03:8D82  00 05     
       03:8D84  00 E5     
       03:8D86  00 05     
       03:8D88  00 01     
       03:8D8A  00 E1     
       03:8D8C  00 19     
       03:8D8E  00 BD     
  236  03:8D90  00 FD             dw $fd00,$bf00,$db00,$db00,$b300,$7b00,$fb00,$dd00
       03:8D92  00 BF     
       03:8D94  00 DB     
       03:8D96  00 DB     
       03:8D98  00 B3     
       03:8D9A  00 7B     
       03:8D9C  00 FB     
       03:8D9E  00 DD     
  237  03:8DA0  40 E1             dw $e140,$2140,$0120,$0120,$0190,$0110,$0140,$1100
       03:8DA2  40 21     
       03:8DA4  20 01     
       03:8DA6  20 01     
       03:8DA8  90 01     
       03:8DAA  10 01     
       03:8DAC  40 01     
       03:8DAE  00 11     
  238  03:8DB0  40 A1             dw $a140,$e940,$f120,$f110,$e1a0,$f110,$d1a0,$8900
       03:8DB2  40 E9     
       03:8DB4  20 F1     
       03:8DB6  10 F1     
       03:8DB8  A0 E1     
       03:8DBA  10 F1     
       03:8DBC  A0 D1     
       03:8DBE  00 89     
  239  03:8DC0  00 1E             dw $1e00,$de00,$fe00,$fe00,$fe00,$fe00,$fe00,$fe00
       03:8DC2  00 DE     
       03:8DC4  00 FE     
       03:8DC6  00 FE     
       03:8DC8  00 FE     
       03:8DCA  00 FE     
       03:8DCC  00 FE     
       03:8DCE  00 FE     
  240  03:8DD0  00 FE             dw $fe00,$fe00,$fe00,$fe00,$fe00,$fe00,$fe00,$fe00
       03:8DD2  00 FE     
       03:8DD4  00 FE     
       03:8DD6  00 FE     
       03:8DD8  00 FE     
       03:8DDA  00 FE     
       03:8DDC  00 FE     
       03:8DDE  00 FE     
  241  03:8DE0  40 00             dw $0040,$0040,$0020,$0020,$0090,$0090,$0040,$1040
       03:8DE2  40 00     
       03:8DE4  20 00     
       03:8DE6  20 00     
       03:8DE8  90 00     
       03:8DEA  90 00     
       03:8DEC  40 00     
       03:8DEE  40 10     
  242  03:8DF0  40 20             dw $2040,$a860,$9020,$d0b0,$00b0,$7090,$90a0,$8820
       03:8DF2  60 A8     
       03:8DF4  20 90     
       03:8DF6  B0 D0     
       03:8DF8  B0 00     
       03:8DFA  90 70     
       03:8DFC  A0 90     
       03:8DFE  20 88     
  243                     
  244                     
  245  03:8E00            spr_pattern2_boath_01:
  246  03:8E00  BC 0F             dw $0fbc,$0598,$0787,$0b80,$07c0,$05ff,$04ff,$02e0
       03:8E02  98 05     
       03:8E04  87 07     
       03:8E06  80 0B     
       03:8E08  C0 07     
       03:8E0A  FF 05     
       03:8E0C  FF 04     
       03:8E0E  E0 02     
  247  03:8E10  60 02             dw $0260,$0130,$0130,$00da,$00ca,$006c,$0036,$0019
       03:8E12  30 01     
       03:8E14  30 01     
       03:8E16  DA 00     
       03:8E18  CA 00     
       03:8E1A  6C 00     
       03:8E1C  36 00     
       03:8E1E  19 00     
  248  03:8E20  08 0F             dw $0f08,$0f00,$0700,$0f00,$0780,$0787,$0587,$03c0
       03:8E22  00 0F     
       03:8E24  00 07     
       03:8E26  00 0F     
       03:8E28  80 07     
       03:8E2A  87 07     
       03:8E2C  87 05     
       03:8E2E  C0 03     
  249  03:8E30  C0 02             dw $02c0,$0160,$0120,$00f2,$00d2,$0068,$0034,$0018
       03:8E32  60 01     
       03:8E34  20 01     
       03:8E36  F2 00     
       03:8E38  D2 00     
       03:8E3A  68 00     
       03:8E3C  34 00     
       03:8E3E  18 00     
  250  03:8E40  FF 0D             dw $0dff,$05ff,$06ff,$0bff,$03ff,$04ff,$04ff,$027f
       03:8E42  FF 05     
       03:8E44  FF 06     
       03:8E46  FF 0B     
       03:8E48  FF 03     
       03:8E4A  FF 04     
       03:8E4C  FF 04     
       03:8E4E  7F 02     
  251  03:8E50  7F 02             dw $027f,$013f,$013f,$00df,$00cf,$006f,$0037,$0019
       03:8E52  3F 01     
       03:8E54  3F 01     
       03:8E56  DF 00     
       03:8E58  CF 00     
       03:8E5A  6F 00     
       03:8E5C  37 00     
       03:8E5E  19 00     
  252  03:8E60  08 0F             dw $0f08,$0f00,$0f00,$0f00,$0780,$0787,$0787,$03c0
       03:8E62  00 0F     
       03:8E64  00 0F     
       03:8E66  00 0F     
       03:8E68  80 07     
       03:8E6A  87 07     
       03:8E6C  87 07     
       03:8E6E  C0 03     
  253  03:8E70  C0 03             dw $03c0,$01e0,$01e0,$00f2,$00f2,$0078,$003c,$0018
       03:8E72  E0 01     
       03:8E74  E0 01     
       03:8E76  F2 00     
       03:8E78  F2 00     
       03:8E7A  78 00     
       03:8E7C  3C 00     
       03:8E7E  18 00     
  254  03:8E80  0C ED             dw $ed0c,$f900,$e100,$0100,$0220,$fcc0,$fc80,$0500
       03:8E82  00 F9     
       03:8E84  00 E1     
       03:8E86  00 01     
       03:8E88  20 02     
       03:8E8A  C0 FC     
       03:8E8C  80 FC     
       03:8E8E  00 05     
  255  03:8E90  00 04             dw $0400,$0800,$0800,$5800,$5000,$2000,$4000,$8000
       03:8E92  00 08     
       03:8E94  00 08     
       03:8E96  00 58     
       03:8E98  00 50     
       03:8E9A  00 20     
       03:8E9C  00 40     
       03:8E9E  00 80     
  256  03:8EA0  4C 41             dw $414c,$4110,$0180,$0120,$0220,$e080,$e000,$0500
       03:8EA2  10 41     
       03:8EA4  80 01     
       03:8EA6  20 01     
       03:8EA8  20 02     
       03:8EAA  80 E0     
       03:8EAC  00 E0     
       03:8EAE  00 05     
  257  03:8EB0  00 04             dw $0400,$0800,$0800,$5800,$5000,$2000,$4000,$0000
       03:8EB2  00 08     
       03:8EB4  00 08     
       03:8EB6  00 58     
       03:8EB8  00 50     
       03:8EBA  00 20     
       03:8EBC  00 40     
       03:8EBE  00 00     
  258  03:8EC0  0C FE             dw $fe0c,$fe00,$fe00,$fe00,$fc00,$fe00,$fe00,$f800
       03:8EC2  00 FE     
       03:8EC4  00 FE     
       03:8EC6  00 FE     
       03:8EC8  00 FC     
       03:8ECA  00 FE     
       03:8ECC  00 FE     
       03:8ECE  00 F8     
  259  03:8ED0  80 F8             dw $f880,$f100,$f100,$e000,$e400,$c800,$9000,$8000
       03:8ED2  00 F1     
       03:8ED4  00 F1     
       03:8ED6  00 E0     
       03:8ED8  00 E4     
       03:8EDA  00 C8     
       03:8EDC  00 90     
       03:8EDE  00 80     
  260  03:8EE0  4C 40             dw $404c,$4050,$0090,$0020,$0020,$e0c0,$e0c0,$0180
       03:8EE2  50 40     
       03:8EE4  90 00     
       03:8EE6  20 00     
       03:8EE8  20 00     
       03:8EEA  C0 E0     
       03:8EEC  C0 E0     
       03:8EEE  80 01     
  261  03:8EF0  80 01             dw $0180,$0300,$0300,$4c00,$4c00,$0800,$1000,$0000
       03:8EF2  00 03     
       03:8EF4  00 03     
       03:8EF6  00 4C     
       03:8EF8  00 4C     
       03:8EFA  00 08     
       03:8EFC  00 10     
       03:8EFE  00 00     
  262  03:8F00  AB 0F             dw $0fab,$0fa8,$0faf,$0fa0,$0f80,$0e87,$0f9f,$0dbf
       03:8F02  A8 0F     
       03:8F04  AF 0F     
       03:8F06  A0 0F     
       03:8F08  80 0F     
       03:8F0A  87 0E     
       03:8F0C  9F 0F     
       03:8F0E  BF 0D     
  263  03:8F10  BF 0F             dw $0fbf,$0bce,$0fdd,$0afb,$07fc,$0eff,$0fef,$0baf
       03:8F12  CE 0B     
       03:8F14  DD 0F     
       03:8F16  FB 0A     
       03:8F18  FC 07     
       03:8F1A  FF 0E     
       03:8F1C  EF 0F     
       03:8F1E  AF 0B     
  264  03:8F20  03 0F             dw $0f03,$0f00,$0f00,$0f00,$0f00,$0f00,$0f02,$0f11
       03:8F22  00 0F     
       03:8F24  00 0F     
       03:8F26  00 0F     
       03:8F28  00 0F     
       03:8F2A  00 0F     
       03:8F2C  02 0F     
       03:8F2E  11 0F     
  265  03:8F30  0F 0F             dw $0f0f,$0f07,$0f0f,$0f1f,$0f1f,$0f2f,$0f06,$0f04
       03:8F32  07 0F     
       03:8F34  0F 0F     
       03:8F36  1F 0F     
       03:8F38  1F 0F     
       03:8F3A  2F 0F     
       03:8F3C  06 0F     
       03:8F3E  04 0F     
  266  03:8F40  FC 0D             dw $0dfc,$0dff,$0bff,$0bff,$06ff,$06ff,$0dff,$0dff
       03:8F42  FF 0D     
       03:8F44  FF 0B     
       03:8F46  FF 0B     
       03:8F48  FF 06     
       03:8F4A  FF 06     
       03:8F4C  FF 0D     
       03:8F4E  FF 0D     
  267  03:8F50  FF 0D             dw $0dff,$09ff,$0bff,$02ff,$02ff,$06ff,$0aff,$0bff
       03:8F52  FF 09     
       03:8F54  FF 0B     
       03:8F56  FF 02     
       03:8F58  FF 02     
       03:8F5A  FF 06     
       03:8F5C  FF 0A     
       03:8F5E  FF 0B     
  268  03:8F60  00 0F             dw $0f00,$0f00,$0f00,$0f00,$0f00,$0f00,$0f02,$0f11
       03:8F62  00 0F     
       03:8F64  00 0F     
       03:8F66  00 0F     
       03:8F68  00 0F     
       03:8F6A  00 0F     
       03:8F6C  02 0F     
       03:8F6E  11 0F     
  269  03:8F70  0D 0F             dw $0f0d,$0f06,$0f04,$0f19,$0f1c,$0f2b,$0f06,$0f04
       03:8F72  06 0F     
       03:8F74  04 0F     
       03:8F76  19 0F     
       03:8F78  1C 0F     
       03:8F7A  2B 0F     
       03:8F7C  06 0F     
       03:8F7E  04 0F     
  270  03:8F80  00 C5             dw $c500,$0500,$e500,$0500,$0100,$e100,$1900,$bd00
       03:8F82  00 05     
       03:8F84  00 E5     
       03:8F86  00 05     
       03:8F88  00 01     
       03:8F8A  00 E1     
       03:8F8C  00 19     
       03:8F8E  00 BD     
  271  03:8F90  00 FD             dw $fd00,$bf00,$db00,$db00,$b300,$7b00,$fb00,$dd00
       03:8F92  00 BF     
       03:8F94  00 DB     
       03:8F96  00 DB     
       03:8F98  00 B3     
       03:8F9A  00 7B     
       03:8F9C  00 FB     
       03:8F9E  00 DD     
  272  03:8FA0  40 E1             dw $e140,$2140,$0120,$0120,$0190,$0110,$0140,$1100
       03:8FA2  40 21     
       03:8FA4  20 01     
       03:8FA6  20 01     
       03:8FA8  90 01     
       03:8FAA  10 01     
       03:8FAC  40 01     
       03:8FAE  00 11     
  273  03:8FB0  40 A1             dw $a140,$e940,$f120,$f110,$e1a0,$f110,$d1a0,$8900
       03:8FB2  40 E9     
       03:8FB4  20 F1     
       03:8FB6  10 F1     
       03:8FB8  A0 E1     
       03:8FBA  10 F1     
       03:8FBC  A0 D1     
       03:8FBE  00 89     
  274  03:8FC0  00 1E             dw $1e00,$de00,$fe00,$fe00,$fe00,$fe00,$fe00,$fe00
       03:8FC2  00 DE     
       03:8FC4  00 FE     
       03:8FC6  00 FE     
       03:8FC8  00 FE     
       03:8FCA  00 FE     
       03:8FCC  00 FE     
       03:8FCE  00 FE     
  275  03:8FD0  00 FE             dw $fe00,$fe00,$fe00,$fe00,$fe00,$fe00,$fe00,$fe00
       03:8FD2  00 FE     
       03:8FD4  00 FE     
       03:8FD6  00 FE     
       03:8FD8  00 FE     
       03:8FDA  00 FE     
       03:8FDC  00 FE     
       03:8FDE  00 FE     
  276  03:8FE0  40 00             dw $0040,$0040,$0020,$0020,$0090,$0090,$0040,$1040
       03:8FE2  40 00     
       03:8FE4  20 00     
       03:8FE6  20 00     
       03:8FE8  90 00     
       03:8FEA  90 00     
       03:8FEC  40 00     
       03:8FEE  40 10     
  277  03:8FF0  40 20             dw $2040,$a860,$9020,$d0b0,$00b0,$7090,$90a0,$8820
       03:8FF2  60 A8     
       03:8FF4  20 90     
       03:8FF6  B0 D0     
       03:8FF8  B0 00     
       03:8FFA  90 70     
       03:8FFC  A0 90     
       03:8FFE  20 88     
  278                     
  279  03:9000            spr_pattern2_boatv_00:
  280  03:9000  00 00             dw $0000,$0000,$0000,$0000,$0000,$0010,$0020,$0060
       03:9002  00 00     
       03:9004  00 00     
       03:9006  00 00     
       03:9008  00 00     
       03:900A  10 00     
       03:900C  20 00     
       03:900E  60 00     
  281  03:9010  8F 00             dw $008f,$0070,$01e1,$0e63,$1862,$2067,$5867,$8067
       03:9012  70 00     
       03:9014  E1 01     
       03:9016  63 0E     
       03:9018  62 18     
       03:901A  67 20     
       03:901C  67 58     
       03:901E  67 80     
  282  03:9020  00 00             dw $0000,$0000,$0000,$0000,$0002,$0018,$0001,$0024
       03:9022  00 00     
       03:9024  00 00     
       03:9026  00 00     
       03:9028  02 00     
       03:902A  18 00     
       03:902C  01 00     
       03:902E  24 00     
  283  03:9030  8F 00             dw $008f,$0010,$0180,$0e00,$0000,$0060,$1863,$0060
       03:9032  10 00     
       03:9034  80 01     
       03:9036  00 0E     
       03:9038  00 00     
       03:903A  60 00     
       03:903C  63 18     
       03:903E  60 00     
  284  03:9040  00 00             dw $0000,$0000,$0000,$0000,$0000,$0000,$0000,$0100
       03:9042  00 00     
       03:9044  00 00     
       03:9046  00 00     
       03:9048  00 00     
       03:904A  00 00     
       03:904C  00 00     
       03:904E  00 01     
  285  03:9050  00 06             dw $0600,$006f,$107f,$21ff,$5fff,$3fff,$7fff,$ffff
       03:9052  6F 00     
       03:9054  7F 10     
       03:9056  FF 21     
       03:9058  FF 5F     
       03:905A  FF 3F     
       03:905C  FF 7F     
       03:905E  FF FF     
  286  03:9060  00 00             dw $0000,$0000,$0000,$0000,$0006,$0018,$0063,$01e4
       03:9062  00 00     
       03:9064  00 00     
       03:9066  00 00     
       03:9068  06 00     
       03:906A  18 00     
       03:906C  63 00     
       03:906E  E4 01     
  287  03:9070  80 07             dw $0780,$0600,$1800,$3800,$4000,$0060,$1863,$0060
       03:9072  00 06     
       03:9074  00 18     
       03:9076  00 38     
       03:9078  00 40     
       03:907A  60 00     
       03:907C  63 18     
       03:907E  60 00     
  288  03:9080  00 00             dw $0000,$0000,$0000,$0000,$0000,$0000,$0000,$0000
       03:9082  00 00     
       03:9084  00 00     
       03:9086  00 00     
       03:9088  00 00     
       03:908A  00 00     
       03:908C  00 00     
       03:908E  00 00     
  289  03:9090  FE FF             dw $fffe,$7e00,$839c,$efc0,$ffc0,$73a0,$ed20,$dfa0
       03:9092  00 7E     
       03:9094  9C 83     
       03:9096  C0 EF     
       03:9098  C0 FF     
       03:909A  A0 73     
       03:909C  20 ED     
       03:909E  A0 DF     
  290  03:90A0  00 00             dw $0000,$0000,$0000,$0000,$2830,$540c,$0343,$5010
       03:90A2  00 00     
       03:90A4  00 00     
       03:90A6  00 00     
       03:90A8  30 28     
       03:90AA  0C 54     
       03:90AC  43 03     
       03:90AE  10 50     
  291  03:90B0  FF FF             dw $ffff,$0001,$0001,$8201,$6c81,$3f01,$7e01,$ff01
       03:90B2  01 00     
       03:90B4  01 00     
       03:90B6  01 82     
       03:90B8  81 6C     
       03:90BA  01 3F     
       03:90BC  01 7E     
       03:90BE  01 FF     
  292  03:90C0  00 00             dw $0000,$0000,$0000,$0000,$0000,$0000,$0000,$0000
       03:90C2  00 00     
       03:90C4  00 00     
       03:90C6  00 00     
       03:90C8  00 00     
       03:90CA  00 00     
       03:90CC  00 00     
       03:90CE  00 00     
  293  03:90D0  00 00             dw $0000,$fffe,$fffe,$fffe,$fffe,$fffe,$fffe,$fffe
       03:90D2  FE FF     
       03:90D4  FE FF     
       03:90D6  FE FF     
       03:90D8  FE FF     
       03:90DA  FE FF     
       03:90DC  FE FF     
       03:90DE  FE FF     
  294  03:90E0  00 00             dw $0000,$0000,$0000,$0000,$3830,$de0c,$03c3,$7830
       03:90E2  00 00     
       03:90E4  00 00     
       03:90E6  00 00     
       03:90E8  30 38     
       03:90EA  0C DE     
       03:90EC  C3 03     
       03:90EE  30 78     
  295  03:90F0  00 00             dw $0000,$0000,$0000,$8200,$6c80,$2300,$2800,$ce00
       03:90F2  00 00     
       03:90F4  00 00     
       03:90F6  00 82     
       03:90F8  80 6C     
       03:90FA  00 23     
       03:90FC  00 28     
       03:90FE  00 CE     
  296  03:9100  64 80             dw $8064,$5864,$6065,$b863,$ce63,$67e1,$3bf0,$18ff
       03:9102  64 58     
       03:9104  65 60     
       03:9106  63 B8     
       03:9108  63 CE     
       03:910A  E1 67     
       03:910C  F0 3B     
       03:910E  FF 18     
  297  03:9110  7F 06             dw $067f,$019d,$0077,$000b,$0000,$0000,$0000,$0000
       03:9112  9D 01     
       03:9114  77 00     
       03:9116  0B 00     
       03:9118  00 00     
       03:911A  00 00     
       03:911C  00 00     
       03:911E  00 00     
  298  03:9120  60 00             dw $0060,$1860,$4060,$a001,$d800,$6e00,$3f80,$19f0
       03:9122  60 18     
       03:9124  60 40     
       03:9126  01 A0     
       03:9128  00 D8     
       03:912A  00 6E     
       03:912C  80 3F     
       03:912E  F0 19     
  299  03:9130  FF 06             dw $06ff,$01ff,$007f,$000f,$0000,$0000,$0000,$0000
       03:9132  FF 01     
       03:9134  7F 00     
       03:9136  0F 00     
       03:9138  00 00     
       03:913A  00 00     
       03:913C  00 00     
       03:913E  00 00     
  300  03:9140  FF FF             dw $ffff,$7fff,$7fff,$bfff,$cfff,$67ff,$39ff,$187f
       03:9142  FF 7F     
       03:9144  FF 7F     
       03:9146  FF BF     
       03:9148  FF CF     
       03:914A  FF 67     
       03:914C  FF 39     
       03:914E  7F 18     
  301  03:9150  1B 06             dw $061b,$019c,$0067,$0009,$0000,$0000,$0000,$0000
       03:9152  9C 01     
       03:9154  67 00     
       03:9156  09 00     
       03:9158  00 00     
       03:915A  00 00     
       03:915C  00 00     
       03:915E  00 00     
  302  03:9160  60 00             dw $0060,$1860,$4060,$e001,$f800,$7e00,$3f80,$1ff0
       03:9162  60 18     
       03:9164  60 40     
       03:9166  01 E0     
       03:9168  00 F8     
       03:916A  00 7E     
       03:916C  80 3F     
       03:916E  F0 1F     
  303  03:9170  FF 07             dw $07ff,$01ff,$007f,$000f,$0000,$0000,$0000,$0000
       03:9172  FF 01     
       03:9174  7F 00     
       03:9176  0F 00     
       03:9178  00 00     
       03:917A  00 00     
       03:917C  00 00     
       03:917E  00 00     
  304  03:9180  E0 ED             dw $ede0,$ebe0,$f7e0,$ffc0,$3dc0,$f99c,$7e00,$ffff
       03:9182  E0 EB     
       03:9184  E0 F7     
       03:9186  C0 FF     
       03:9188  C0 3D     
       03:918A  9C F9     
       03:918C  00 7E     
       03:918E  FF FF     
  305  03:9190  DF D7             dw $d7df,$ff7f,$75ff,$efff,$0000,$0000,$0000,$0000
       03:9192  7F FF     
       03:9194  FF 75     
       03:9196  FF EF     
       03:9198  00 00     
       03:919A  00 00     
       03:919C  00 00     
       03:919E  00 00     
  306  03:91A0  81 3F             dw $3f81,$7f41,$ff01,$3d01,$1881,$2001,$0001,$0000
       03:91A2  41 7F     
       03:91A4  01 FF     
       03:91A6  01 3D     
       03:91A8  81 18     
       03:91AA  01 20     
       03:91AC  01 00     
       03:91AE  00 00     
  307  03:91B0  FF FF             dw $ffff,$ffff,$ffff,$ffff,$0000,$0000,$0000,$0000
       03:91B2  FF FF     
       03:91B4  FF FF     
       03:91B6  FF FF     
       03:91B8  00 00     
       03:91BA  00 00     
       03:91BC  00 00     
       03:91BE  00 00     
  308  03:91C0  FE FF             dw $fffe,$fffe,$fffe,$fffe,$fffe,$fffe,$fffe,$ffff
       03:91C2  FE FF     
       03:91C4  FE FF     
       03:91C6  FE FF     
       03:91C8  FE FF     
       03:91CA  FE FF     
       03:91CC  FE FF     
       03:91CE  FF FF     
  309  03:91D0  CF 87             dw $87cf,$fc3c,$21f3,$c7cf,$0000,$0000,$0000,$0000
       03:91D2  3C FC     
       03:91D4  F3 21     
       03:91D6  CF C7     
       03:91D8  00 00     
       03:91DA  00 00     
       03:91DC  00 00     
       03:91DE  00 00     
  310  03:91E0  80 29             dw $2980,$6240,$d700,$3900,$1880,$2000,$0000,$0000
       03:91E2  40 62     
       03:91E4  00 D7     
       03:91E6  00 39     
       03:91E8  80 18     
       03:91EA  00 20     
       03:91EC  00 00     
       03:91EE  00 00     
  311  03:91F0  FF FF             dw $ffff,$ffff,$ffff,$ffff,$0000,$0000,$0000,$0000
       03:91F2  FF FF     
       03:91F4  FF FF     
       03:91F6  FF FF     
       03:91F8  00 00     
       03:91FA  00 00     
       03:91FC  00 00     
       03:91FE  00 00     
  312                     
  313  03:9200            spr_pattern2_boatv_01:
  314  03:9200  00 00             dw $0000,$0000,$0000,$0000,$0000,$0000,$0000,$0000
       03:9202  00 00     
       03:9204  00 00     
       03:9206  00 00     
       03:9208  00 00     
       03:920A  00 00     
       03:920C  00 00     
       03:920E  00 00     
  315  03:9210  00 00             dw $0000,$0000,$f000,$cc00,$c200,$f700,$f780,$f783
       03:9212  00 00     
       03:9214  00 F0     
       03:9216  00 CC     
       03:9218  00 C2     
       03:921A  00 F7     
       03:921C  80 F7     
       03:921E  83 F7     
  316  03:9220  00 00             dw $0000,$0000,$0000,$0000,$0000,$0000,$0000,$0000
       03:9222  00 00     
       03:9224  00 00     
       03:9226  00 00     
       03:9228  00 00     
       03:922A  00 00     
       03:922C  00 00     
       03:922E  00 00     
  317  03:9230  00 00             dw $0000,$c000,$f000,$cc00,$c200,$f740,$d300,$d3a3
       03:9232  00 C0     
       03:9234  00 F0     
       03:9236  00 CC     
       03:9238  00 C2     
       03:923A  40 F7     
       03:923C  00 D3     
       03:923E  A3 D3     
  318  03:9240  00 00             dw $0000,$0000,$0000,$0000,$0000,$0100,$1800,$6000
       03:9242  00 00     
       03:9244  00 00     
       03:9246  00 00     
       03:9248  00 00     
       03:924A  00 01     
       03:924C  00 18     
       03:924E  00 60     
  319  03:9250  00 00             dw $0000,$0000,$0300,$30c0,$3c10,$3e04,$3e00,$3e00
       03:9252  00 00     
       03:9254  00 03     
       03:9256  C0 30     
       03:9258  10 3C     
       03:925A  04 3E     
       03:925C  00 3E     
       03:925E  00 3E     
  320  03:9260  00 00             dw $0000,$0000,$0000,$0000,$0000,$03c0,$1d00,$7860
       03:9262  00 00     
       03:9264  00 00     
       03:9266  00 00     
       03:9268  00 00     
       03:926A  C0 03     
       03:926C  00 1D     
       03:926E  60 78     
  321  03:9270  90 03             dw $0390,$0004,$0300,$01c0,$00f8,$365c,$12b6,$12ab
       03:9272  04 00     
       03:9274  00 03     
       03:9276  C0 01     
       03:9278  F8 00     
       03:927A  5C 36     
       03:927C  B6 12     
       03:927E  AB 12     
  322  03:9280  00 00             dw $0000,$0000,$0000,$0000,$0000,$0000,$0000,$0000
       03:9282  00 00     
       03:9284  00 00     
       03:9286  00 00     
       03:9288  00 00     
       03:928A  00 00     
       03:928C  00 00     
       03:928E  00 00     
  323  03:9290  00 00             dw $0000,$0000,$0000,$0000,$0000,$0000,$0000,$0000
       03:9292  00 00     
       03:9294  00 00     
       03:9296  00 00     
       03:9298  00 00     
       03:929A  00 00     
       03:929C  00 00     
       03:929E  00 00     
  324  03:92A0  00 00             dw $0000,$0000,$0000,$0000,$0000,$0000,$0000,$0000
       03:92A2  00 00     
       03:92A4  00 00     
       03:92A6  00 00     
       03:92A8  00 00     
       03:92AA  00 00     
       03:92AC  00 00     
       03:92AE  00 00     
  325  03:92B0  00 00             dw $0000,$0000,$0000,$0000,$0000,$0000,$0000,$0000
       03:92B2  00 00     
       03:92B4  00 00     
       03:92B6  00 00     
       03:92B8  00 00     
       03:92BA  00 00     
       03:92BC  00 00     
       03:92BE  00 00     
  326  03:92C0  00 00             dw $0000,$0000,$0000,$0000,$0000,$0000,$0000,$0000
       03:92C2  00 00     
       03:92C4  00 00     
       03:92C6  00 00     
       03:92C8  00 00     
       03:92CA  00 00     
       03:92CC  00 00     
       03:92CE  00 00     
  327  03:92D0  00 00             dw $0000,$0000,$0000,$0000,$0000,$0000,$0000,$0000
       03:92D2  00 00     
       03:92D4  00 00     
       03:92D6  00 00     
       03:92D8  00 00     
       03:92DA  00 00     
       03:92DC  00 00     
       03:92DE  00 00     
  328  03:92E0  00 00             dw $0000,$0000,$0000,$0000,$0000,$0000,$0000,$0000
       03:92E2  00 00     
       03:92E4  00 00     
       03:92E6  00 00     
       03:92E8  00 00     
       03:92EA  00 00     
       03:92EC  00 00     
       03:92EE  00 00     
  329  03:92F0  00 00             dw $0000,$0000,$0000,$0000,$0000,$0000,$0000,$0000
       03:92F2  00 00     
       03:92F4  00 00     
       03:92F6  00 00     
       03:92F8  00 00     
       03:92FA  00 00     
       03:92FC  00 00     
       03:92FE  00 00     
  330  03:9300  40 F7             dw $f740,$f7a8,$f700,$c300,$cf00,$fc00,$3f00,$fe00
       03:9302  A8 F7     
       03:9304  00 F7     
       03:9306  00 C3     
       03:9308  00 CF     
       03:930A  00 FC     
       03:930C  00 3F     
       03:930E  00 FE     
  331  03:9310  00 9C             dw $9c00,$e000,$c000,$0000,$0000,$0000,$0000,$0000
       03:9312  00 E0     
       03:9314  00 C0     
       03:9316  00 00     
       03:9318  00 00     
       03:931A  00 00     
       03:931C  00 00     
       03:931E  00 00     
  332  03:9320  D5 D3             dw $d3d5,$d3e8,$d3c0,$c300,$c300,$cf00,$3f00,$fe10
       03:9322  E8 D3     
       03:9324  C0 D3     
       03:9326  00 C3     
       03:9328  00 C3     
       03:932A  00 CF     
       03:932C  00 3F     
       03:932E  10 FE     
  333  03:9330  40 FC             dw $fc40,$f500,$c000,$0000,$0000,$0000,$0000,$0000
       03:9332  00 F5     
       03:9334  00 C0     
       03:9336  00 00     
       03:9338  00 00     
       03:933A  00 00     
       03:933C  00 00     
       03:933E  00 00     
  334  03:9340  00 3E             dw $3e00,$3e00,$3e04,$3d10,$3ec0,$3c00,$ff00,$fc00
       03:9342  00 3E     
       03:9344  04 3E     
       03:9346  10 3D     
       03:9348  C0 3E     
       03:934A  00 3C     
       03:934C  00 FF     
       03:934E  00 FC     
  335  03:9350  00 84             dw $8400,$e000,$c100,$0000,$0000,$0000,$0000,$0000
       03:9352  00 E0     
       03:9354  00 C1     
       03:9356  00 00     
       03:9358  00 00     
       03:935A  00 00     
       03:935C  00 00     
       03:935E  00 00     
  336  03:9360  D5 12             dw $12d5,$12ee,$12dc,$01f8,$03c0,$0f00,$3f04,$ff90
       03:9362  EE 12     
       03:9364  DC 12     
       03:9366  F8 01     
       03:9368  C0 03     
       03:936A  00 0F     
       03:936C  04 3F     
       03:936E  90 FF     
  337  03:9370  60 FC             dw $fc60,$fd00,$c3c0,$0000,$0000,$0000,$0000,$0000
       03:9372  00 FD     
       03:9374  C0 C3     
       03:9376  00 00     
       03:9378  00 00     
       03:937A  00 00     
       03:937C  00 00     
       03:937E  00 00     
  338  03:9380  00 00             dw $0000,$0000,$0000,$0000,$0000,$0000,$0000,$0000
       03:9382  00 00     
       03:9384  00 00     
       03:9386  00 00     
       03:9388  00 00     
       03:938A  00 00     
       03:938C  00 00     
       03:938E  00 00     
  339  03:9390  00 00             dw $0000,$0000,$0000,$0000,$0000,$0000,$0000,$0000
       03:9392  00 00     
       03:9394  00 00     
       03:9396  00 00     
       03:9398  00 00     
       03:939A  00 00     
       03:939C  00 00     
       03:939E  00 00     
  340  03:93A0  00 00             dw $0000,$0000,$0000,$0000,$0000,$0000,$0000,$0000
       03:93A2  00 00     
       03:93A4  00 00     
       03:93A6  00 00     
       03:93A8  00 00     
       03:93AA  00 00     
       03:93AC  00 00     
       03:93AE  00 00     
  341  03:93B0  00 00             dw $0000,$0000,$0000,$0000,$0000,$0000,$0000,$0000
       03:93B2  00 00     
       03:93B4  00 00     
       03:93B6  00 00     
       03:93B8  00 00     
       03:93BA  00 00     
       03:93BC  00 00     
       03:93BE  00 00     
  342  03:93C0  00 00             dw $0000,$0000,$0000,$0000,$0000,$0000,$0000,$0000
       03:93C2  00 00     
       03:93C4  00 00     
       03:93C6  00 00     
       03:93C8  00 00     
       03:93CA  00 00     
       03:93CC  00 00     
       03:93CE  00 00     
  343  03:93D0  00 00             dw $0000,$0000,$0000,$0000,$0000,$0000,$0000,$0000
       03:93D2  00 00     
       03:93D4  00 00     
       03:93D6  00 00     
       03:93D8  00 00     
       03:93DA  00 00     
       03:93DC  00 00     
       03:93DE  00 00     
  344  03:93E0  00 00             dw $0000,$0000,$0000,$0000,$0000,$0000,$0000,$0000
       03:93E2  00 00     
       03:93E4  00 00     
       03:93E6  00 00     
       03:93E8  00 00     
       03:93EA  00 00     
       03:93EC  00 00     
       03:93EE  00 00     
  345  03:93F0  00 00             dw $0000,$0000,$0000,$0000,$0000,$0000,$0000,$0000
       03:93F2  00 00     
       03:93F4  00 00     
       03:93F6  00 00     
       03:93F8  00 00     
       03:93FA  00 00     
       03:93FC  00 00     
       03:93FE  00 00     
  346                     
  347                     
  348  03:9400            spr_pattern2_boatturret_00:
  349  03:9400  00 00             dw $0000,$0000,$0000,$0000,$0000,$0000,$0000,$0000
       03:9402  00 00     
       03:9404  00 00     
       03:9406  00 00     
       03:9408  00 00     
       03:940A  00 00     
       03:940C  00 00     
       03:940E  00 00     
  350  03:9410  00 00             dw $0000,$0007,$0018,$0077,$00e8,$00e7,$03fb,$0c03
       03:9412  07 00     
       03:9414  18 00     
       03:9416  77 00     
       03:9418  E8 00     
       03:941A  E7 00     
       03:941C  FB 03     
       03:941E  03 0C     
  351  03:9420  00 00             dw $0000,$0000,$0000,$0000,$0000,$0000,$0000,$0000
       03:9422  00 00     
       03:9424  00 00     
       03:9426  00 00     
       03:9428  00 00     
       03:942A  00 00     
       03:942C  00 00     
       03:942E  00 00     
  352  03:9430  00 00             dw $0000,$0000,$0000,$0047,$00f0,$0080,$0000,$0400
       03:9432  00 00     
       03:9434  00 00     
       03:9436  47 00     
       03:9438  F0 00     
       03:943A  80 00     
       03:943C  00 00     
       03:943E  00 04     
  353  03:9440  00 00             dw $0000,$0000,$0000,$0000,$0000,$0000,$0000,$0000
       03:9442  00 00     
       03:9444  00 00     
       03:9446  00 00     
       03:9448  00 00     
       03:944A  00 00     
       03:944C  00 00     
       03:944E  00 00     
  354  03:9450  00 00             dw $0000,$0007,$001f,$0078,$00c0,$00f8,$07fc,$0ffc
       03:9452  07 00     
       03:9454  1F 00     
       03:9456  78 00     
       03:9458  C0 00     
       03:945A  F8 00     
       03:945C  FC 07     
       03:945E  FC 0F     
  355  03:9460  00 00             dw $0000,$0000,$0000,$0000,$0000,$0000,$0000,$0000
       03:9462  00 00     
       03:9464  00 00     
       03:9466  00 00     
       03:9468  00 00     
       03:946A  00 00     
       03:946C  00 00     
       03:946E  00 00     
  356  03:9470  00 00             dw $0000,$0000,$0000,$0040,$00ff,$0080,$07f8,$0ff8
       03:9472  00 00     
       03:9474  00 00     
       03:9476  40 00     
       03:9478  FF 00     
       03:947A  80 00     
       03:947C  F8 07     
       03:947E  F8 0F     
  357  03:9480  00 00             dw $0000,$0000,$0000,$0000,$0000,$0000,$0000,$0000
       03:9482  00 00     
       03:9484  00 00     
       03:9486  00 00     
       03:9488  00 00     
       03:948A  00 00     
       03:948C  00 00     
       03:948E  00 00     
  358  03:9490  00 00             dw $0000,$e000,$1800,$ec00,$1400,$ca00,$ea00,$ea00
       03:9492  00 E0     
       03:9494  00 18     
       03:9496  00 EC     
       03:9498  00 14     
       03:949A  00 CA     
       03:949C  00 EA     
       03:949E  00 EA     
  359  03:94A0  00 00             dw $0000,$0000,$0000,$0000,$0000,$0000,$0000,$0000
       03:94A2  00 00     
       03:94A4  00 00     
       03:94A6  00 00     
       03:94A8  00 00     
       03:94AA  00 00     
       03:94AC  00 00     
       03:94AE  00 00     
  360  03:94B0  00 00             dw $0000,$0000,$0000,$e000,$0c00,$3800,$1800,$1800
       03:94B2  00 00     
       03:94B4  00 00     
       03:94B6  00 E0     
       03:94B8  00 0C     
       03:94BA  00 38     
       03:94BC  00 18     
       03:94BE  00 18     
  361  03:94C0  00 00             dw $0000,$0000,$0000,$0000,$0000,$0000,$0000,$0000
       03:94C2  00 00     
       03:94C4  00 00     
       03:94C6  00 00     
       03:94C8  00 00     
       03:94CA  00 00     
       03:94CC  00 00     
       03:94CE  00 00     
  362  03:94D0  00 00             dw $0000,$e000,$f800,$1c00,$0000,$0600,$c600,$c600
       03:94D2  00 E0     
       03:94D4  00 F8     
       03:94D6  00 1C     
       03:94D8  00 00     
       03:94DA  00 06     
       03:94DC  00 C6     
       03:94DE  00 C6     
  363  03:94E0  00 00             dw $0000,$0000,$0000,$0000,$0000,$0000,$0000,$0000
       03:94E2  00 00     
       03:94E4  00 00     
       03:94E6  00 00     
       03:94E8  00 00     
       03:94EA  00 00     
       03:94EC  00 00     
       03:94EE  00 00     
  364  03:94F0  00 00             dw $0000,$0000,$0000,$0000,$fc00,$0000,$0000,$0000
       03:94F2  00 00     
       03:94F4  00 00     
       03:94F6  00 00     
       03:94F8  00 FC     
       03:94FA  00 00     
       03:94FC  00 00     
       03:94FE  00 00     
  365  03:9500  FB 0D             dw $0dfb,$0c03,$07e7,$01e8,$00f7,$00f8,$007f,$001f
       03:9502  03 0C     
       03:9504  E7 07     
       03:9506  E8 01     
       03:9508  F7 00     
       03:950A  F8 00     
       03:950C  7F 00     
       03:950E  1F 00     
  366  03:9510  00 00             dw $0000,$0000,$0000,$0000,$0000,$0000,$0000,$0000
       03:9512  00 00     
       03:9514  00 00     
       03:9516  00 00     
       03:9518  00 00     
       03:951A  00 00     
       03:951C  00 00     
       03:951E  00 00     
  367  03:9520  00 04             dw $0400,$0bf8,$0780,$01f0,$00c7,$00e0,$0078,$001f
       03:9522  F8 0B     
       03:9524  80 07     
       03:9526  F0 01     
       03:9528  C7 00     
       03:952A  E0 00     
       03:952C  78 00     
       03:952E  1F 00     
  368  03:9530  00 00             dw $0000,$0000,$0000,$0000,$0000,$0000,$0000,$0000
       03:9532  00 00     
       03:9534  00 00     
       03:9536  00 00     
       03:9538  00 00     
       03:953A  00 00     
       03:953C  00 00     
       03:953E  00 00     
  369  03:9540  FC 0F             dw $0ffc,$0ffc,$07f8,$01c0,$00f8,$00ff,$007f,$001f
       03:9542  FC 0F     
       03:9544  F8 07     
       03:9546  C0 01     
       03:9548  F8 00     
       03:954A  FF 00     
       03:954C  7F 00     
       03:954E  1F 00     
  370  03:9550  00 00             dw $0000,$0000,$0000,$0000,$0000,$0000,$0000,$0000
       03:9552  00 00     
       03:9554  00 00     
       03:9556  00 00     
       03:9558  00 00     
       03:955A  00 00     
       03:955C  00 00     
       03:955E  00 00     
  371  03:9560  F8 0F             dw $0ff8,$0ff8,$0780,$01ff,$00c0,$00e0,$0078,$001f
       03:9562  F8 0F     
       03:9564  80 07     
       03:9566  FF 01     
       03:9568  C0 00     
       03:956A  E0 00     
       03:956C  78 00     
       03:956E  1F 00     
  372  03:9570  00 00             dw $0000,$0000,$0000,$0000,$0000,$0000,$0000,$0000
       03:9572  00 00     
       03:9574  00 00     
       03:9576  00 00     
       03:9578  00 00     
       03:957A  00 00     
       03:957C  00 00     
       03:957E  00 00     
  373  03:9580  00 EA             dw $ea00,$ea00,$ca00,$1400,$ec00,$1800,$e000,$8000
       03:9582  00 EA     
       03:9584  00 CA     
       03:9586  00 14     
       03:9588  00 EC     
       03:958A  00 18     
       03:958C  00 E0     
       03:958E  00 80     
  374  03:9590  00 00             dw $0000,$0000,$0000,$0000,$0000,$0000,$0000,$0000
       03:9592  00 00     
       03:9594  00 00     
       03:9596  00 00     
       03:9598  00 00     
       03:959A  00 00     
       03:959C  00 00     
       03:959E  00 00     
  375  03:95A0  00 18             dw $1800,$1800,$3800,$0c00,$e000,$0000,$0000,$8000
       03:95A2  00 18     
       03:95A4  00 38     
       03:95A6  00 0C     
       03:95A8  00 E0     
       03:95AA  00 00     
       03:95AC  00 00     
       03:95AE  00 80     
  376  03:95B0  00 00             dw $0000,$0000,$0000,$0000,$0000,$0000,$0000,$0000
       03:95B2  00 00     
       03:95B4  00 00     
       03:95B6  00 00     
       03:95B8  00 00     
       03:95BA  00 00     
       03:95BC  00 00     
       03:95BE  00 00     
  377  03:95C0  00 C6             dw $c600,$c600,$0600,$0000,$1c00,$f800,$e000,$8000
       03:95C2  00 C6     
       03:95C4  00 06     
       03:95C6  00 00     
       03:95C8  00 1C     
       03:95CA  00 F8     
       03:95CC  00 E0     
       03:95CE  00 80     
  378  03:95D0  00 00             dw $0000,$0000,$0000,$0000,$0000,$0000,$0000,$0000
       03:95D2  00 00     
       03:95D4  00 00     
       03:95D6  00 00     
       03:95D8  00 00     
       03:95DA  00 00     
       03:95DC  00 00     
       03:95DE  00 00     
  379  03:95E0  00 00             dw $0000,$0000,$0000,$fc00,$0000,$0000,$0000,$8000
       03:95E2  00 00     
       03:95E4  00 00     
       03:95E6  00 FC     
       03:95E8  00 00     
       03:95EA  00 00     
       03:95EC  00 00     
       03:95EE  00 80     
  380  03:95F0  00 00             dw $0000,$0000,$0000,$0000,$0000,$0000,$0000,$0000
       03:95F2  00 00     
       03:95F4  00 00     
       03:95F6  00 00     
       03:95F8  00 00     
       03:95FA  00 00     
       03:95FC  00 00     
       03:95FE  00 00     
  381                     
  382  03:9600            spr_pattern2_boatturret_01:
  383  03:9600  00 00             dw $0000,$0000,$0000,$0000,$0000,$0000,$0000,$0000
       03:9602  00 00     
       03:9604  00 00     
       03:9606  00 00     
       03:9608  00 00     
       03:960A  00 00     
       03:960C  00 00     
       03:960E  00 00     
  384  03:9610  00 00             dw $0000,$0407,$0258,$0999,$0e64,$0f93,$07eb,$01c7
       03:9612  07 04     
       03:9614  58 02     
       03:9616  99 09     
       03:9618  64 0E     
       03:961A  93 0F     
       03:961C  EB 07     
       03:961E  C7 01     
  385  03:9620  00 00             dw $0000,$0000,$0000,$0000,$0000,$0000,$0000,$0000
       03:9622  00 00     
       03:9624  00 00     
       03:9626  00 00     
       03:9628  00 00     
       03:962A  00 00     
       03:962C  00 00     
       03:962E  00 00     
  386  03:9630  00 00             dw $0000,$0000,$060c,$0e02,$0f81,$0fe0,$0790,$0180
       03:9632  00 00     
       03:9634  0C 06     
       03:9636  02 0E     
       03:9638  81 0F     
       03:963A  E0 0F     
       03:963C  90 07     
       03:963E  80 01     
  387  03:9640  00 00             dw $0000,$0000,$0000,$0000,$0000,$0000,$0000,$0000
       03:9642  00 00     
       03:9644  00 00     
       03:9646  00 00     
       03:9648  00 00     
       03:964A  00 00     
       03:964C  00 00     
       03:964E  00 00     
  388  03:9650  00 00             dw $0000,$0707,$07d3,$0ffc,$0ffe,$0ffc,$07fc,$01f8
       03:9652  07 07     
       03:9654  D3 07     
       03:9656  FC 0F     
       03:9658  FE 0F     
       03:965A  FC 0F     
       03:965C  FC 07     
       03:965E  F8 01     
  389  03:9660  00 00             dw $0000,$0000,$0000,$0000,$0000,$0000,$0000,$0000
       03:9662  00 00     
       03:9664  00 00     
       03:9666  00 00     
       03:9668  00 00     
       03:966A  00 00     
       03:966C  00 00     
       03:966E  00 00     
  390  03:9670  00 00             dw $0000,$0700,$07cc,$0ff3,$0ffc,$0ff8,$0798,$0180
       03:9672  00 07     
       03:9674  CC 07     
       03:9676  F3 0F     
       03:9678  FC 0F     
       03:967A  F8 0F     
       03:967C  98 07     
       03:967E  80 01     
  391  03:9680  00 00             dw $0000,$0000,$0000,$0000,$0000,$0000,$0000,$0000
       03:9682  00 00     
       03:9684  00 00     
       03:9686  00 00     
       03:9688  00 00     
       03:968A  00 00     
       03:968C  00 00     
       03:968E  00 00     
  392  03:9690  00 00             dw $0000,$e000,$1800,$ec00,$1400,$ca00,$ea00,$ea00
       03:9692  00 E0     
       03:9694  00 18     
       03:9696  00 EC     
       03:9698  00 14     
       03:969A  00 CA     
       03:969C  00 EA     
       03:969E  00 EA     
  393  03:96A0  00 00             dw $0000,$0000,$0000,$0000,$0000,$0000,$0000,$0000
       03:96A2  00 00     
       03:96A4  00 00     
       03:96A6  00 00     
       03:96A8  00 00     
       03:96AA  00 00     
       03:96AC  00 00     
       03:96AE  00 00     
  394  03:96B0  00 00             dw $0000,$0000,$0000,$e000,$3000,$0800,$1400,$1a00
       03:96B2  00 00     
       03:96B4  00 00     
       03:96B6  00 E0     
       03:96B8  00 30     
       03:96BA  00 08     
       03:96BC  00 14     
       03:96BE  00 1A     
  395  03:96C0  00 00             dw $0000,$0000,$0000,$0000,$0000,$0000,$0000,$0000
       03:96C2  00 00     
       03:96C4  00 00     
       03:96C6  00 00     
       03:96C8  00 00     
       03:96CA  00 00     
       03:96CC  00 00     
       03:96CE  00 00     
  396  03:96D0  00 00             dw $0000,$e000,$f800,$1c00,$0c00,$0600,$c200,$c400
       03:96D2  00 E0     
       03:96D4  00 F8     
       03:96D6  00 1C     
       03:96D8  00 0C     
       03:96DA  00 06     
       03:96DC  00 C2     
       03:96DE  00 C4     
  397  03:96E0  00 00             dw $0000,$0000,$0000,$0000,$0000,$0000,$0000,$0000
       03:96E2  00 00     
       03:96E4  00 00     
       03:96E6  00 00     
       03:96E8  00 00     
       03:96EA  00 00     
       03:96EC  00 00     
       03:96EE  00 00     
  398  03:96F0  00 00             dw $0000,$0000,$0000,$0000,$c000,$3000,$0c00,$0200
       03:96F2  00 00     
       03:96F4  00 00     
       03:96F6  00 00     
       03:96F8  00 C0     
       03:96FA  00 30     
       03:96FC  00 0C     
       03:96FE  00 02     
  399  03:9700  D7 01             dw $01d7,$01cf,$01d1,$01e8,$00f7,$00f8,$007f,$001f
       03:9702  CF 01     
       03:9704  D1 01     
       03:9706  E8 01     
       03:9708  F7 00     
       03:970A  F8 00     
       03:970C  7F 00     
       03:970E  1F 00     
  400  03:9710  00 00             dw $0000,$0000,$0000,$0000,$0000,$0000,$0000,$0000
       03:9712  00 00     
       03:9714  00 00     
       03:9716  00 00     
       03:9718  00 00     
       03:971A  00 00     
       03:971C  00 00     
       03:971E  00 00     
  401  03:9720  F8 01             dw $01f8,$0190,$0198,$01ce,$00c7,$00e0,$0078,$001f
       03:9722  90 01     
       03:9724  98 01     
       03:9726  CE 01     
       03:9728  C7 00     
       03:972A  E0 00     
       03:972C  78 00     
       03:972E  1F 00     
  402  03:9730  00 00             dw $0000,$0000,$0000,$0000,$0000,$0000,$0000,$0000
       03:9732  00 00     
       03:9734  00 00     
       03:9736  00 00     
       03:9738  00 00     
       03:973A  00 00     
       03:973C  00 00     
       03:973E  00 00     
  403  03:9740  81 01             dw $0181,$01e0,$01e0,$01f0,$00f8,$00ff,$007f,$001f
       03:9742  E0 01     
       03:9744  E0 01     
       03:9746  F0 01     
       03:9748  F8 00     
       03:974A  FF 00     
       03:974C  7F 00     
       03:974E  1F 00     
  404  03:9750  00 00             dw $0000,$0000,$0000,$0000,$0000,$0000,$0000,$0000
       03:9752  00 00     
       03:9754  00 00     
       03:9756  00 00     
       03:9758  00 00     
       03:975A  00 00     
       03:975C  00 00     
       03:975E  00 00     
  405  03:9760  E0 01             dw $01e0,$0198,$0186,$01c1,$00c0,$00e0,$0078,$001f
       03:9762  98 01     
       03:9764  86 01     
       03:9766  C1 01     
       03:9768  C0 00     
       03:976A  E0 00     
       03:976C  78 00     
       03:976E  1F 00     
  406  03:9770  00 00             dw $0000,$0000,$0000,$0000,$0000,$0000,$0000,$0000
       03:9772  00 00     
       03:9774  00 00     
       03:9776  00 00     
       03:9778  00 00     
       03:977A  00 00     
       03:977C  00 00     
       03:977E  00 00     
  407  03:9780  00 EA             dw $ea00,$ea00,$ca00,$9400,$8c00,$1800,$e000,$8000
       03:9782  00 EA     
       03:9784  00 CA     
       03:9786  00 94     
       03:9788  00 8C     
       03:978A  00 18     
       03:978C  00 E0     
       03:978E  00 80     
  408  03:9790  00 00             dw $0000,$0000,$0000,$0000,$0000,$0000,$0000,$0000
       03:9792  00 00     
       03:9794  00 00     
       03:9796  00 00     
       03:9798  00 00     
       03:979A  00 00     
       03:979C  00 00     
       03:979E  00 00     
  409  03:97A0  00 18             dw $1800,$1800,$3800,$7000,$e000,$1800,$0000,$8000
       03:97A2  00 18     
       03:97A4  00 38     
       03:97A6  00 70     
       03:97A8  00 E0     
       03:97AA  00 18     
       03:97AC  00 00     
       03:97AE  00 80     
  410  03:97B0  00 00             dw $0000,$0000,$0000,$0000,$0000,$0000,$0000,$0000
       03:97B2  00 00     
       03:97B4  00 00     
       03:97B6  00 00     
       03:97B8  00 00     
       03:97BA  00 00     
       03:97BC  00 00     
       03:97BE  00 00     
  411  03:97C0  00 C6             dw $c600,$8600,$0600,$0c00,$1c00,$e000,$e000,$8000
       03:97C2  00 86     
       03:97C4  00 06     
       03:97C6  00 0C     
       03:97C8  00 1C     
       03:97CA  00 E0     
       03:97CC  00 E0     
       03:97CE  00 80     
  412  03:97D0  00 00             dw $0000,$0000,$0000,$0000,$0000,$0000,$0000,$0000
       03:97D2  00 00     
       03:97D4  00 00     
       03:97D6  00 00     
       03:97D8  00 00     
       03:97DA  00 00     
       03:97DC  00 00     
       03:97DE  00 00     
  413  03:97E0  00 00             dw $0000,$0000,$0000,$8000,$6000,$1800,$0000,$8000
       03:97E2  00 00     
       03:97E4  00 00     
       03:97E6  00 80     
       03:97E8  00 60     
       03:97EA  00 18     
       03:97EC  00 00     
       03:97EE  00 80     
  414  03:97F0  00 00             dw $0000,$0000,$0000,$0000,$0000,$0000,$0000,$0000
       03:97F2  00 00     
       03:97F4  00 00     
       03:97F6  00 00     
       03:97F8  00 00     
       03:97FA  00 00     
       03:97FC  00 00     
       03:97FE  00 00     
  415                     
  416  03:9800            spr_pattern2_boatturret_02:
  417  03:9800  00 00             dw $0000,$0000,$0000,$0000,$0000,$0000,$0080,$0580
       03:9802  00 00     
       03:9804  00 00     
       03:9806  00 00     
       03:9808  00 00     
       03:980A  00 00     
       03:980C  80 00     
       03:980E  80 05     
  418  03:9810  20 0F             dw $0f20,$0e97,$074c,$03a7,$01d2,$00cb,$01d7,$01d7
       03:9812  97 0E     
       03:9814  4C 07     
       03:9816  A7 03     
       03:9818  D2 01     
       03:981A  CB 00     
       03:981C  D7 01     
       03:981E  D7 01     
  419  03:9820  00 00             dw $0000,$0000,$0000,$0000,$0000,$0000,$0100,$0780
       03:9822  00 00     
       03:9824  00 00     
       03:9826  00 00     
       03:9828  00 00     
       03:982A  00 00     
       03:982C  00 01     
       03:982E  80 07     
  420  03:9830  00 0D             dw $0d00,$0e02,$0781,$03c1,$01e1,$0090,$01d0,$01b8
       03:9832  02 0E     
       03:9834  81 07     
       03:9836  C1 03     
       03:9838  E1 01     
       03:983A  90 00     
       03:983C  D0 01     
       03:983E  B8 01     
  421  03:9840  00 00             dw $0000,$0000,$0000,$0000,$0000,$0000,$0180,$07c0
       03:9842  00 00     
       03:9844  00 00     
       03:9846  00 00     
       03:9848  00 00     
       03:984A  00 00     
       03:984C  80 01     
       03:984E  C0 07     
  422  03:9850  E0 0F             dw $0fe0,$0ff5,$07fe,$03fe,$01fe,$00fc,$01a8,$01c1
       03:9852  F5 0F     
       03:9854  FE 07     
       03:9856  FE 03     
       03:9858  FE 01     
       03:985A  FC 00     
       03:985C  A8 01     
       03:985E  C1 01     
  423  03:9860  00 00             dw $0000,$0000,$0000,$0000,$0000,$0000,$0180,$07c0
       03:9862  00 00     
       03:9864  00 00     
       03:9866  00 00     
       03:9868  00 00     
       03:986A  00 00     
       03:986C  80 01     
       03:986E  C0 07     
  424  03:9870  E0 0F             dw $0fe0,$0ff2,$07f9,$03fc,$01fc,$0098,$01c0,$01a0
       03:9872  F2 0F     
       03:9874  F9 07     
       03:9876  FC 03     
       03:9878  FC 01     
       03:987A  98 00     
       03:987C  C0 01     
       03:987E  A0 01     
  425  03:9880  00 00             dw $0000,$0000,$0000,$0000,$0000,$0000,$0000,$0000
       03:9882  00 00     
       03:9884  00 00     
       03:9886  00 00     
       03:9888  00 00     
       03:988A  00 00     
       03:988C  00 00     
       03:988E  00 00     
  426  03:9890  00 00             dw $0000,$e000,$1800,$ec00,$5400,$ea00,$fa00,$ea00
       03:9892  00 E0     
       03:9894  00 18     
       03:9896  00 EC     
       03:9898  00 54     
       03:989A  00 EA     
       03:989C  00 FA     
       03:989E  00 EA     
  427  03:98A0  00 00             dw $0000,$0000,$0000,$0000,$0000,$0000,$0000,$0000
       03:98A2  00 00     
       03:98A4  00 00     
       03:98A6  00 00     
       03:98A8  00 00     
       03:98AA  00 00     
       03:98AC  00 00     
       03:98AE  00 00     
  428  03:98B0  00 00             dw $0000,$0000,$0000,$6000,$b000,$1800,$0800,$1000
       03:98B2  00 00     
       03:98B4  00 00     
       03:98B6  00 60     
       03:98B8  00 B0     
       03:98BA  00 18     
       03:98BC  00 08     
       03:98BE  00 10     
  429  03:98C0  00 00             dw $0000,$0000,$0000,$0000,$0000,$0000,$0000,$0000
       03:98C2  00 00     
       03:98C4  00 00     
       03:98C6  00 00     
       03:98C8  00 00     
       03:98CA  00 00     
       03:98CC  00 00     
       03:98CE  00 00     
  430  03:98D0  00 00             dw $0000,$e000,$f800,$1c00,$0c00,$0600,$8600,$c600
       03:98D2  00 E0     
       03:98D4  00 F8     
       03:98D6  00 1C     
       03:98D8  00 0C     
       03:98DA  00 06     
       03:98DC  00 86     
       03:98DE  00 C6     
  431  03:98E0  00 00             dw $0000,$0000,$0000,$0000,$0000,$0000,$0000,$0000
       03:98E2  00 00     
       03:98E4  00 00     
       03:98E6  00 00     
       03:98E8  00 00     
       03:98EA  00 00     
       03:98EC  00 00     
       03:98EE  00 00     
  432  03:98F0  00 00             dw $0000,$0000,$0000,$8000,$4000,$2000,$1000,$0800
       03:98F2  00 00     
       03:98F4  00 00     
       03:98F6  00 80     
       03:98F8  00 40     
       03:98FA  00 20     
       03:98FC  00 10     
       03:98FE  00 08     
  433  03:9900  C7 01             dw $01c7,$01df,$01d7,$01ea,$00f6,$00f8,$007f,$001f
       03:9902  DF 01     
       03:9904  D7 01     
       03:9906  EA 01     
       03:9908  F6 00     
       03:990A  F8 00     
       03:990C  7F 00     
       03:990E  1F 00     
  434  03:9910  00 00             dw $0000,$0000,$0000,$0000,$0000,$0000,$0000,$0000
       03:9912  00 00     
       03:9914  00 00     
       03:9916  00 00     
       03:9918  00 00     
       03:991A  00 00     
       03:991C  00 00     
       03:991E  00 00     
  435  03:9920  98 01             dw $0198,$0190,$0198,$01cd,$00c7,$00e0,$0078,$001f
       03:9922  90 01     
       03:9924  98 01     
       03:9926  CD 01     
       03:9928  C7 00     
       03:992A  E0 00     
       03:992C  78 00     
       03:992E  1F 00     
  436  03:9930  00 00             dw $0000,$0000,$0000,$0000,$0000,$0000,$0000,$0000
       03:9932  00 00     
       03:9934  00 00     
       03:9936  00 00     
       03:9938  00 00     
       03:993A  00 00     
       03:993C  00 00     
       03:993E  00 00     
  437  03:9940  E3 01             dw $01e3,$01e1,$01e0,$01f0,$00f8,$00ff,$007f,$001f
       03:9942  E1 01     
       03:9944  E0 01     
       03:9946  F0 01     
       03:9948  F8 00     
       03:994A  FF 00     
       03:994C  7F 00     
       03:994E  1F 00     
  438  03:9950  00 00             dw $0000,$0000,$0000,$0000,$0000,$0000,$0000,$0000
       03:9952  00 00     
       03:9954  00 00     
       03:9956  00 00     
       03:9958  00 00     
       03:995A  00 00     
       03:995C  00 00     
       03:995E  00 00     
  439  03:9960  90 01             dw $0190,$0188,$0184,$01c2,$00c1,$00e0,$0078,$001f
       03:9962  88 01     
       03:9964  84 01     
       03:9966  C2 01     
       03:9968  C1 00     
       03:996A  E0 00     
       03:996C  78 00     
       03:996E  1F 00     
  440  03:9970  00 00             dw $0000,$0000,$0000,$0000,$0000,$0000,$0000,$0000
       03:9972  00 00     
       03:9974  00 00     
       03:9976  00 00     
       03:9978  00 00     
       03:997A  00 00     
       03:997C  00 00     
       03:997E  00 00     
  441  03:9980  00 EA             dw $ea00,$ea00,$ca00,$1400,$ec00,$1800,$e000,$8000
       03:9982  00 EA     
       03:9984  00 CA     
       03:9986  00 14     
       03:9988  00 EC     
       03:998A  00 18     
       03:998C  00 E0     
       03:998E  00 80     
  442  03:9990  00 00             dw $0000,$0000,$0000,$0000,$0000,$0000,$0000,$0000
       03:9992  00 00     
       03:9994  00 00     
       03:9996  00 00     
       03:9998  00 00     
       03:999A  00 00     
       03:999C  00 00     
       03:999E  00 00     
  443  03:99A0  00 1C             dw $1c00,$1a00,$3800,$f000,$e000,$8000,$4000,$8000
       03:99A2  00 1A     
       03:99A4  00 38     
       03:99A6  00 F0     
       03:99A8  00 E0     
       03:99AA  00 80     
       03:99AC  00 40     
       03:99AE  00 80     
  444  03:99B0  00 00             dw $0000,$0000,$0000,$0000,$0000,$0000,$0000,$0000
       03:99B2  00 00     
       03:99B4  00 00     
       03:99B6  00 00     
       03:99B8  00 00     
       03:99BA  00 00     
       03:99BC  00 00     
       03:99BE  00 00     
  445  03:99C0  00 82             dw $8200,$0400,$0600,$0c00,$1c00,$7800,$a000,$8000
       03:99C2  00 04     
       03:99C4  00 06     
       03:99C6  00 0C     
       03:99C8  00 1C     
       03:99CA  00 78     
       03:99CC  00 A0     
       03:99CE  00 80     
  446  03:99D0  00 00             dw $0000,$0000,$0000,$0000,$0000,$0000,$0000,$0000
       03:99D2  00 00     
       03:99D4  00 00     
       03:99D6  00 00     
       03:99D8  00 00     
       03:99DA  00 00     
       03:99DC  00 00     
       03:99DE  00 00     
  447  03:99E0  00 04             dw $0400,$0200,$0000,$0000,$0000,$8000,$4000,$8000
       03:99E2  00 02     
       03:99E4  00 00     
       03:99E6  00 00     
       03:99E8  00 00     
       03:99EA  00 80     
       03:99EC  00 40     
       03:99EE  00 80     
  448  03:99F0  00 00             dw $0000,$0000,$0000,$0000,$0000,$0000,$0000,$0000
       03:99F2  00 00     
       03:99F4  00 00     
       03:99F6  00 00     
       03:99F8  00 00     
       03:99FA  00 00     
       03:99FC  00 00     
       03:99FE  00 00     
  449                     
  450  03:9A00            spr_pattern2_boatturret_03:
  451  03:9A00  00 00             dw $0000,$0000,$0000,$0000,$0000,$0000,$01b0,$0188
       03:9A02  00 00     
       03:9A04  00 00     
       03:9A06  00 00     
       03:9A08  00 00     
       03:9A0A  00 00     
       03:9A0C  B0 01     
       03:9A0E  88 01     
  452  03:9A10  C8 01             dw $01c8,$00d7,$00e6,$006a,$00f4,$00c1,$01c7,$01d7
       03:9A12  D7 00     
       03:9A14  E6 00     
       03:9A16  6A 00     
       03:9A18  F4 00     
       03:9A1A  C1 00     
       03:9A1C  C7 01     
       03:9A1E  D7 01     
  453  03:9A20  00 00             dw $0000,$0000,$0000,$0000,$0000,$0070,$01e0,$01c0
       03:9A22  00 00     
       03:9A24  00 00     
       03:9A26  00 00     
       03:9A28  00 00     
       03:9A2A  70 00     
       03:9A2C  E0 01     
       03:9A2E  C0 01     
  454  03:9A30  E0 01             dw $01e0,$00e0,$00f0,$0050,$00e8,$00a8,$0190,$0188
       03:9A32  E0 00     
       03:9A34  F0 00     
       03:9A36  50 00     
       03:9A38  E8 00     
       03:9A3A  A8 00     
       03:9A3C  90 01     
       03:9A3E  88 01     
  455  03:9A40  00 00             dw $0000,$0000,$0000,$0000,$0000,$0070,$01f0,$01f8
       03:9A42  00 00     
       03:9A44  00 00     
       03:9A46  00 00     
       03:9A48  00 00     
       03:9A4A  70 00     
       03:9A4C  F0 01     
       03:9A4E  F8 01     
  456  03:9A50  F8 01             dw $01f8,$00ff,$00ff,$007f,$00df,$00de,$01e8,$01e0
       03:9A52  FF 00     
       03:9A54  FF 00     
       03:9A56  7F 00     
       03:9A58  DF 00     
       03:9A5A  DE 00     
       03:9A5C  E8 01     
       03:9A5E  E0 01     
  457  03:9A60  00 00             dw $0000,$0000,$0000,$0000,$0000,$0070,$01f0,$01f8
       03:9A62  00 00     
       03:9A64  00 00     
       03:9A66  00 00     
       03:9A68  00 00     
       03:9A6A  70 00     
       03:9A6C  F0 01     
       03:9A6E  F8 01     
  458  03:9A70  F8 01             dw $01f8,$00fc,$00fc,$005e,$00ee,$00a8,$0190,$0190
       03:9A72  FC 00     
       03:9A74  FC 00     
       03:9A76  5E 00     
       03:9A78  EE 00     
       03:9A7A  A8 00     
       03:9A7C  90 01     
       03:9A7E  90 01     
  459  03:9A80  00 00             dw $0000,$0000,$0000,$0000,$0000,$0000,$0000,$0000
       03:9A82  00 00     
       03:9A84  00 00     
       03:9A86  00 00     
       03:9A88  00 00     
       03:9A8A  00 00     
       03:9A8C  00 00     
       03:9A8E  00 00     
  460  03:9A90  00 00             dw $0000,$e000,$1800,$ac00,$1400,$ea00,$ea00,$fa00
       03:9A92  00 E0     
       03:9A94  00 18     
       03:9A96  00 AC     
       03:9A98  00 14     
       03:9A9A  00 EA     
       03:9A9C  00 EA     
       03:9A9E  00 FA     
  461  03:9AA0  00 00             dw $0000,$0000,$0000,$0000,$0000,$0000,$0000,$0000
       03:9AA2  00 00     
       03:9AA4  00 00     
       03:9AA6  00 00     
       03:9AA8  00 00     
       03:9AAA  00 00     
       03:9AAC  00 00     
       03:9AAE  00 00     
  462  03:9AB0  00 00             dw $0000,$8000,$8000,$e000,$f000,$1800,$1800,$0800
       03:9AB2  00 80     
       03:9AB4  00 80     
       03:9AB6  00 E0     
       03:9AB8  00 F0     
       03:9ABA  00 18     
       03:9ABC  00 18     
       03:9ABE  00 08     
  463  03:9AC0  00 00             dw $0000,$0000,$0000,$0000,$0000,$0000,$0000,$0000
       03:9AC2  00 00     
       03:9AC4  00 00     
       03:9AC6  00 00     
       03:9AC8  00 00     
       03:9ACA  00 00     
       03:9ACC  00 00     
       03:9ACE  00 00     
  464  03:9AD0  00 00             dw $0000,$6000,$7800,$1c00,$0c00,$0600,$0600,$8600
       03:9AD2  00 60     
       03:9AD4  00 78     
       03:9AD6  00 1C     
       03:9AD8  00 0C     
       03:9ADA  00 06     
       03:9ADC  00 06     
       03:9ADE  00 86     
  465  03:9AE0  00 00             dw $0000,$0000,$0000,$0000,$0000,$0000,$0000,$0000
       03:9AE2  00 00     
       03:9AE4  00 00     
       03:9AE6  00 00     
       03:9AE8  00 00     
       03:9AEA  00 00     
       03:9AEC  00 00     
       03:9AEE  00 00     
  466  03:9AF0  00 00             dw $0000,$8000,$8000,$4000,$4000,$2000,$2000,$1000
       03:9AF2  00 80     
       03:9AF4  00 80     
       03:9AF6  00 40     
       03:9AF8  00 40     
       03:9AFA  00 20     
       03:9AFC  00 20     
       03:9AFE  00 10     
  467  03:9B00  DF 01             dw $01df,$01df,$01d7,$01ec,$00f7,$00f8,$007f,$001f
       03:9B02  DF 01     
       03:9B04  D7 01     
       03:9B06  EC 01     
       03:9B08  F7 00     
       03:9B0A  F8 00     
       03:9B0C  7F 00     
       03:9B0E  1F 00     
  468  03:9B10  00 00             dw $0000,$0000,$0000,$0000,$0000,$0000,$0000,$0000
       03:9B12  00 00     
       03:9B14  00 00     
       03:9B16  00 00     
       03:9B18  00 00     
       03:9B1A  00 00     
       03:9B1C  00 00     
       03:9B1E  00 00     
  469  03:9B20  90 01             dw $0190,$0190,$0198,$01cb,$00c5,$00e2,$0079,$001f
       03:9B22  90 01     
       03:9B24  98 01     
       03:9B26  CB 01     
       03:9B28  C5 00     
       03:9B2A  E2 00     
       03:9B2C  79 00     
       03:9B2E  1F 00     
  470  03:9B30  00 00             dw $0000,$0000,$0000,$0000,$0000,$0000,$0000,$0000
       03:9B32  00 00     
       03:9B34  00 00     
       03:9B36  00 00     
       03:9B38  00 00     
       03:9B3A  00 00     
       03:9B3C  00 00     
       03:9B3E  00 00     
  471  03:9B40  E3 01             dw $01e3,$01e3,$01e0,$01f0,$00f8,$00fd,$007e,$001f
       03:9B42  E3 01     
       03:9B44  E0 01     
       03:9B46  F0 01     
       03:9B48  F8 00     
       03:9B4A  FD 00     
       03:9B4C  7E 00     
       03:9B4E  1F 00     
  472  03:9B50  00 00             dw $0000,$0000,$0000,$0000,$0000,$0000,$0000,$0000
       03:9B52  00 00     
       03:9B54  00 00     
       03:9B56  00 00     
       03:9B58  00 00     
       03:9B5A  00 00     
       03:9B5C  00 00     
       03:9B5E  00 00     
  473  03:9B60  88 01             dw $0188,$0188,$0184,$01c4,$00c2,$00e2,$0079,$001f
       03:9B62  88 01     
       03:9B64  84 01     
       03:9B66  C4 01     
       03:9B68  C2 00     
       03:9B6A  E2 00     
       03:9B6C  79 00     
       03:9B6E  1F 00     
  474  03:9B70  00 00             dw $0000,$0000,$0000,$0000,$0000,$0000,$0000,$0000
       03:9B72  00 00     
       03:9B74  00 00     
       03:9B76  00 00     
       03:9B78  00 00     
       03:9B7A  00 00     
       03:9B7C  00 00     
       03:9B7E  00 00     
  475  03:9B80  00 FA             dw $fa00,$e200,$c200,$1400,$ec00,$1800,$e000,$8000
       03:9B82  00 E2     
       03:9B84  00 C2     
       03:9B86  00 14     
       03:9B88  00 EC     
       03:9B8A  00 18     
       03:9B8C  00 E0     
       03:9B8E  00 80     
  476  03:9B90  00 00             dw $0000,$0000,$0000,$0000,$0000,$0000,$0000,$0000
       03:9B92  00 00     
       03:9B94  00 00     
       03:9B96  00 00     
       03:9B98  00 00     
       03:9B9A  00 00     
       03:9B9C  00 00     
       03:9B9E  00 00     
  477  03:9BA0  00 08             dw $0800,$1800,$3800,$f400,$e400,$0000,$0000,$8000
       03:9BA2  00 18     
       03:9BA4  00 38     
       03:9BA6  00 F4     
       03:9BA8  00 E4     
       03:9BAA  00 00     
       03:9BAC  00 00     
       03:9BAE  00 80     
  478  03:9BB0  00 00             dw $0000,$0000,$0000,$0000,$0000,$0000,$0000,$0000
       03:9BB2  00 00     
       03:9BB4  00 00     
       03:9BB6  00 00     
       03:9BB8  00 00     
       03:9BBA  00 00     
       03:9BBC  00 00     
       03:9BBE  00 00     
  479  03:9BC0  00 C6             dw $c600,$8600,$0600,$0800,$1800,$f800,$e000,$8000
       03:9BC2  00 86     
       03:9BC4  00 06     
       03:9BC6  00 08     
       03:9BC8  00 18     
       03:9BCA  00 F8     
       03:9BCC  00 E0     
       03:9BCE  00 80     
  480  03:9BD0  00 00             dw $0000,$0000,$0000,$0000,$0000,$0000,$0000,$0000
       03:9BD2  00 00     
       03:9BD4  00 00     
       03:9BD6  00 00     
       03:9BD8  00 00     
       03:9BDA  00 00     
       03:9BDC  00 00     
       03:9BDE  00 00     
  481  03:9BE0  00 10             dw $1000,$0800,$0800,$0400,$0400,$0000,$0000,$8000
       03:9BE2  00 08     
       03:9BE4  00 08     
       03:9BE6  00 04     
       03:9BE8  00 04     
       03:9BEA  00 00     
       03:9BEC  00 00     
       03:9BEE  00 80     
  482  03:9BF0  00 00             dw $0000,$0000,$0000,$0000,$0000,$0000,$0000,$0000
       03:9BF2  00 00     
       03:9BF4  00 00     
       03:9BF6  00 00     
       03:9BF8  00 00     
       03:9BFA  00 00     
       03:9BFC  00 00     
       03:9BFE  00 00     
  483                     
  484  03:9C00            spr_pattern2_boatturret_04:
  485  03:9C00  00 00             dw $0000,$0000,$0000,$0000,$0000,$0007,$000c,$000d
       03:9C02  00 00     
       03:9C04  00 00     
       03:9C06  00 00     
       03:9C08  00 00     
       03:9C0A  07 00     
       03:9C0C  0C 00     
       03:9C0E  0D 00     
  486  03:9C10  0D 00             dw $000d,$000d,$001d,$0061,$00f9,$00c0,$01c7,$01c7
       03:9C12  0D 00     
       03:9C14  1D 00     
       03:9C16  61 00     
       03:9C18  F9 00     
       03:9C1A  C0 00     
       03:9C1C  C7 01     
       03:9C1E  C7 01     
  487  03:9C20  00 00             dw $0000,$0000,$0000,$0000,$0001,$0005,$000e,$000e
       03:9C22  00 00     
       03:9C24  00 00     
       03:9C26  00 00     
       03:9C28  01 00     
       03:9C2A  05 00     
       03:9C2C  0E 00     
       03:9C2E  0E 00     
  488  03:9C30  0E 00             dw $000e,$000a,$0012,$0052,$00ca,$008c,$0188,$0188
       03:9C32  0A 00     
       03:9C34  12 00     
       03:9C36  52 00     
       03:9C38  CA 00     
       03:9C3A  8C 00     
       03:9C3C  88 01     
       03:9C3E  88 01     
  489  03:9C40  00 00             dw $0000,$0000,$0000,$0000,$0001,$0007,$000f,$000f
       03:9C42  00 00     
       03:9C44  00 00     
       03:9C46  00 00     
       03:9C48  01 00     
       03:9C4A  07 00     
       03:9C4C  0F 00     
       03:9C4E  0F 00     
  490  03:9C50  0F 00             dw $000f,$000f,$000f,$006f,$00e7,$00e3,$01e0,$01e0
       03:9C52  0F 00     
       03:9C54  0F 00     
       03:9C56  6F 00     
       03:9C58  E7 00     
       03:9C5A  E3 00     
       03:9C5C  E0 01     
       03:9C5E  E0 01     
  491  03:9C60  00 00             dw $0000,$0000,$0000,$0000,$0001,$0007,$000f,$000f
       03:9C62  00 00     
       03:9C64  00 00     
       03:9C66  00 00     
       03:9C68  01 00     
       03:9C6A  07 00     
       03:9C6C  0F 00     
       03:9C6E  0F 00     
  492  03:9C70  0F 00             dw $000f,$000b,$0013,$0053,$00d3,$0090,$0190,$0190
       03:9C72  0B 00     
       03:9C74  13 00     
       03:9C76  53 00     
       03:9C78  D3 00     
       03:9C7A  90 00     
       03:9C7C  90 01     
       03:9C7E  90 01     
  493  03:9C80  00 00             dw $0000,$0000,$0000,$0000,$0000,$8000,$4000,$4000
       03:9C82  00 00     
       03:9C84  00 00     
       03:9C86  00 00     
       03:9C88  00 00     
       03:9C8A  00 80     
       03:9C8C  00 40     
       03:9C8E  00 40     
  494  03:9C90  00 40             dw $4000,$6000,$7800,$4c00,$5400,$0a00,$ea00,$ea00
       03:9C92  00 60     
       03:9C94  00 78     
       03:9C96  00 4C     
       03:9C98  00 54     
       03:9C9A  00 0A     
       03:9C9C  00 EA     
       03:9C9E  00 EA     
  495  03:9CA0  00 00             dw $0000,$0000,$0000,$0000,$8000,$8000,$0000,$0000
       03:9CA2  00 00     
       03:9CA4  00 00     
       03:9CA6  00 00     
       03:9CA8  00 80     
       03:9CAA  00 80     
       03:9CAC  00 00     
       03:9CAE  00 00     
  496  03:9CB0  00 00             dw $0000,$0000,$1000,$1000,$0000,$2800,$0800,$0800
       03:9CB2  00 00     
       03:9CB4  00 10     
       03:9CB6  00 10     
       03:9CB8  00 00     
       03:9CBA  00 28     
       03:9CBC  00 08     
       03:9CBE  00 08     
  497  03:9CC0  00 00             dw $0000,$0000,$0000,$0000,$8000,$c000,$c000,$c000
       03:9CC2  00 00     
       03:9CC4  00 00     
       03:9CC6  00 00     
       03:9CC8  00 80     
       03:9CCA  00 C0     
       03:9CCC  00 C0     
       03:9CCE  00 C0     
  498  03:9CD0  00 C0             dw $c000,$e000,$e800,$ec00,$ec00,$c600,$0600,$0600
       03:9CD2  00 E0     
       03:9CD4  00 E8     
       03:9CD6  00 EC     
       03:9CD8  00 EC     
       03:9CDA  00 C6     
       03:9CDC  00 06     
       03:9CDE  00 06     
  499  03:9CE0  00 00             dw $0000,$0000,$0000,$0000,$8000,$c000,$c000,$c000
       03:9CE2  00 00     
       03:9CE4  00 00     
       03:9CE6  00 00     
       03:9CE8  00 80     
       03:9CEA  00 C0     
       03:9CEC  00 C0     
       03:9CEE  00 C0     
  500  03:9CF0  00 C0             dw $c000,$c000,$d000,$d000,$d000,$1000,$1000,$1000
       03:9CF2  00 C0     
       03:9CF4  00 D0     
       03:9CF6  00 D0     
       03:9CF8  00 D0     
       03:9CFA  00 10     
       03:9CFC  00 10     
       03:9CFE  00 10     
  501  03:9D00  C7 01             dw $01c7,$01c7,$01c3,$01f8,$00e7,$00f8,$007f,$001f
       03:9D02  C7 01     
       03:9D04  C3 01     
       03:9D06  F8 01     
       03:9D08  E7 00     
       03:9D0A  F8 00     
       03:9D0C  7F 00     
       03:9D0E  1F 00     
  502  03:9D10  00 00             dw $0000,$0000,$0000,$0000,$0000,$0000,$0000,$0000
       03:9D12  00 00     
       03:9D14  00 00     
       03:9D16  00 00     
       03:9D18  00 00     
       03:9D1A  00 00     
       03:9D1C  00 00     
       03:9D1E  00 00     
  503  03:9D20  88 01             dw $0188,$0188,$018c,$01cf,$00d7,$00f0,$0078,$001f
       03:9D22  88 01     
       03:9D24  8C 01     
       03:9D26  CF 01     
       03:9D28  D7 00     
       03:9D2A  F0 00     
       03:9D2C  78 00     
       03:9D2E  1F 00     
  504  03:9D30  00 00             dw $0000,$0000,$0000,$0000,$0000,$0000,$0000,$0000
       03:9D32  00 00     
       03:9D34  00 00     
       03:9D36  00 00     
       03:9D38  00 00     
       03:9D3A  00 00     
       03:9D3C  00 00     
       03:9D3E  00 00     
  505  03:9D40  E3 01             dw $01e3,$01e3,$01e0,$01e0,$00e8,$00ef,$007f,$001f
       03:9D42  E3 01     
       03:9D44  E0 01     
       03:9D46  E0 01     
       03:9D48  E8 00     
       03:9D4A  EF 00     
       03:9D4C  7F 00     
       03:9D4E  1F 00     
  506  03:9D50  00 00             dw $0000,$0000,$0000,$0000,$0000,$0000,$0000,$0000
       03:9D52  00 00     
       03:9D54  00 00     
       03:9D56  00 00     
       03:9D58  00 00     
       03:9D5A  00 00     
       03:9D5C  00 00     
       03:9D5E  00 00     
  507  03:9D60  90 01             dw $0190,$0190,$0190,$01d0,$00d0,$00f0,$0078,$001f
       03:9D62  90 01     
       03:9D64  90 01     
       03:9D66  D0 01     
       03:9D68  D0 00     
       03:9D6A  F0 00     
       03:9D6C  78 00     
       03:9D6E  1F 00     
  508  03:9D70  00 00             dw $0000,$0000,$0000,$0000,$0000,$0000,$0000,$0000
       03:9D72  00 00     
       03:9D74  00 00     
       03:9D76  00 00     
       03:9D78  00 00     
       03:9D7A  00 00     
       03:9D7C  00 00     
       03:9D7E  00 00     
  509  03:9D80  00 EA             dw $ea00,$ea00,$ca00,$1400,$ec00,$1800,$e000,$8000
       03:9D82  00 EA     
       03:9D84  00 CA     
       03:9D86  00 14     
       03:9D88  00 EC     
       03:9D8A  00 18     
       03:9D8C  00 E0     
       03:9D8E  00 80     
  510  03:9D90  00 00             dw $0000,$0000,$0000,$0000,$0000,$0000,$0000,$0000
       03:9D92  00 00     
       03:9D94  00 00     
       03:9D96  00 00     
       03:9D98  00 00     
       03:9D9A  00 00     
       03:9D9C  00 00     
       03:9D9E  00 00     
  511  03:9DA0  00 08             dw $0800,$0800,$2800,$e000,$f000,$1000,$0000,$8000
       03:9DA2  00 08     
       03:9DA4  00 28     
       03:9DA6  00 E0     
       03:9DA8  00 F0     
       03:9DAA  00 10     
       03:9DAC  00 00     
       03:9DAE  00 80     
  512  03:9DB0  00 00             dw $0000,$0000,$0000,$0000,$0000,$0000,$0000,$0000
       03:9DB2  00 00     
       03:9DB4  00 00     
       03:9DB6  00 00     
       03:9DB8  00 00     
       03:9DBA  00 00     
       03:9DBC  00 00     
       03:9DBE  00 00     
  513  03:9DC0  00 C6             dw $c600,$c600,$0600,$0c00,$0c00,$e800,$e000,$8000
       03:9DC2  00 C6     
       03:9DC4  00 06     
       03:9DC6  00 0C     
       03:9DC8  00 0C     
       03:9DCA  00 E8     
       03:9DCC  00 E0     
       03:9DCE  00 80     
  514  03:9DD0  00 00             dw $0000,$0000,$0000,$0000,$0000,$0000,$0000,$0000
       03:9DD2  00 00     
       03:9DD4  00 00     
       03:9DD6  00 00     
       03:9DD8  00 00     
       03:9DDA  00 00     
       03:9DDC  00 00     
       03:9DDE  00 00     
  515  03:9DE0  00 10             dw $1000,$1000,$1000,$1000,$1000,$1000,$0000,$8000
       03:9DE2  00 10     
       03:9DE4  00 10     
       03:9DE6  00 10     
       03:9DE8  00 10     
       03:9DEA  00 10     
       03:9DEC  00 00     
       03:9DEE  00 80     
  516  03:9DF0  00 00             dw $0000,$0000,$0000,$0000,$0000,$0000,$0000,$0000
       03:9DF2  00 00     
       03:9DF4  00 00     
       03:9DF6  00 00     
       03:9DF8  00 00     
       03:9DFA  00 00     
       03:9DFC  00 00     
       03:9DFE  00 00     
  517                     
  518  03:9E00            spr_pattern2_damaged_fire:
  519  03:9E00  B0 03             dw $03b0,$0228,$05d7,$0a28,$0ad7,$1528,$2ad7,$1aa8
       03:9E02  28 02     
       03:9E04  D7 05     
       03:9E06  28 0A     
       03:9E08  D7 0A     
       03:9E0A  28 15     
       03:9E0C  D7 2A     
       03:9E0E  A8 1A     
  520  03:9E10  D7 2A             dw $2ad7,$152f,$0ad0,$092f,$04bb,$0344,$00b8,$00a0
       03:9E12  2F 15     
       03:9E14  D0 0A     
       03:9E16  2F 09     
       03:9E18  BB 04     
       03:9E1A  44 03     
       03:9E1C  B8 00     
       03:9E1E  A0 00     
  521  03:9E20  80 03             dw $0380,$03c8,$061f,$0c37,$0ce0,$19c8,$331f,$2337
       03:9E22  C8 03     
       03:9E24  1F 06     
       03:9E26  37 0C     
       03:9E28  E0 0C     
       03:9E2A  C8 19     
       03:9E2C  1F 33     
       03:9E2E  37 23     
  522  03:9E30  18 33             dw $3318,$19cf,$0ce0,$0e30,$073f,$0384,$00c0,$00c0
       03:9E32  CF 19     
       03:9E34  E0 0C     
       03:9E36  30 0E     
       03:9E38  3F 07     
       03:9E3A  84 03     
       03:9E3C  C0 00     
       03:9E3E  C0 00     
  523  03:9E40  00 00             dw $0000,$0408,$081f,$103f,$10ff,$21f7,$03e0,$03c0
       03:9E42  08 04     
       03:9E44  1F 08     
       03:9E46  3F 10     
       03:9E48  FF 10     
       03:9E4A  F7 21     
       03:9E4C  E0 03     
       03:9E4E  C0 03     
  524  03:9E50  E0 03             dw $03e0,$21f0,$10ff,$103f,$083f,$0404,$0300,$0000
       03:9E52  F0 21     
       03:9E54  FF 10     
       03:9E56  3F 10     
       03:9E58  3F 08     
       03:9E5A  04 04     
       03:9E5C  00 03     
       03:9E5E  00 00     
  525  03:9E60  B8 03             dw $03b8,$07f6,$0fe0,$1fc0,$1f00,$3e00,$3c00,$3c00
       03:9E62  F6 07     
       03:9E64  E0 0F     
       03:9E66  C0 1F     
       03:9E68  00 1F     
       03:9E6A  00 3E     
       03:9E6C  00 3C     
       03:9E6E  00 3C     
  526  03:9E70  00 3C             dw $3c00,$3e00,$1f00,$1fc0,$0fc0,$07fb,$03fc,$00e0
       03:9E72  00 3E     
       03:9E74  00 1F     
       03:9E76  C0 1F     
       03:9E78  C0 0F     
       03:9E7A  FB 07     
       03:9E7C  FC 03     
       03:9E7E  E0 00     
  527  03:9E80  00 00             dw $0000,$bc00,$6000,$c000,$2000,$d800,$2600,$d980
       03:9E82  00 BC     
       03:9E84  00 60     
       03:9E86  00 C0     
       03:9E88  00 20     
       03:9E8A  00 D8     
       03:9E8C  00 26     
       03:9E8E  80 D9     
  528  03:9E90  C0 EC             dw $ecc0,$9300,$6c00,$9000,$2000,$d000,$0800,$0000
       03:9E92  00 93     
       03:9E94  00 6C     
       03:9E96  00 90     
       03:9E98  00 20     
       03:9E9A  00 D0     
       03:9E9C  00 08     
       03:9E9E  00 00     
  529  03:9EA0  00 3C             dw $3c00,$c300,$9c80,$2000,$1800,$c600,$e180,$3860
       03:9EA2  00 C3     
       03:9EA4  80 9C     
       03:9EA6  00 20     
       03:9EA8  00 18     
       03:9EAA  00 C6     
       03:9EAC  80 E1     
       03:9EAE  60 38     
  530  03:9EB0  38 1C             dw $1c38,$f0c0,$6300,$0c00,$c800,$e600,$3000,$0000
       03:9EB2  C0 F0     
       03:9EB4  00 63     
       03:9EB6  00 0C     
       03:9EB8  00 C8     
       03:9EBA  00 E6     
       03:9EBC  00 30     
       03:9EBE  00 00     
  531  03:9EC0  00 3C             dw $3c00,$ff00,$fc80,$e000,$f800,$3e00,$1f80,$07e0
       03:9EC2  00 FF     
       03:9EC4  80 FC     
       03:9EC6  00 E0     
       03:9EC8  00 F8     
       03:9ECA  00 3E     
       03:9ECC  80 1F     
       03:9ECE  E0 07     
  532  03:9ED0  F8 03             dw $03f8,$0fc0,$9f00,$fc00,$f800,$fe00,$3800,$0000
       03:9ED2  C0 0F     
       03:9ED4  00 9F     
       03:9ED6  00 FC     
       03:9ED8  00 F8     
       03:9EDA  00 FE     
       03:9EDC  00 38     
       03:9EDE  00 00     
  533                     
  534                     
  535  03:9EE0            spr_pattern2_end:
  536                     
  537           1EE0      spr_pattern2_size       .equ    spr_pattern2_end-spr_pattern2
  538                     
  539                     ;----
  540                     
  541           0004              .bank   MAIN_BANK+3
  542           A000              .org    $a000
  543                     
  544  04:A000            spr_pattern3:
  545                     
  546  04:A000            spr_pattern3_fire:
  547  04:A000  0E 0E             dw $0e0e,$b0e1,$473c,$936d,$b783,$0c7d,$58c2,$7301
       04:A002  E1 B0     
       04:A004  3C 47     
       04:A006  6D 93     
       04:A008  83 B7     
       04:A00A  7D 0C     
       04:A00C  C2 58     
       04:A00E  01 73     
  548  04:A010  01 77             dw $7701,$e600,$ec00,$ec00,$6c01,$7401,$7601,$3302
       04:A012  00 E6     
       04:A014  00 EC     
       04:A016  00 EC     
       04:A018  01 6C     
       04:A01A  01 74     
       04:A01C  01 76     
       04:A01E  02 33     
  549  04:A020  FE 07             dw $07fe,$3f1f,$78c3,$ec60,$d003,$c07d,$80fe,$83f3
       04:A022  1F 3F     
       04:A024  C3 78     
       04:A026  60 EC     
       04:A028  03 D0     
       04:A02A  7D C0     
       04:A02C  FE 80     
       04:A02E  F3 83     
  550  04:A030  FB 87             dw $87fb,$07c7,$0f83,$0e83,$8e83,$0783,$87c7,$c3fe
       04:A032  C7 07     
       04:A034  83 0F     
       04:A036  83 0E     
       04:A038  83 8E     
       04:A03A  83 07     
       04:A03C  C7 87     
       04:A03E  FE C3     
  551  04:A040  FE 07             dw $07fe,$3fff,$7c3f,$f39f,$effc,$ff82,$ff01,$fc0c
       04:A042  FF 3F     
       04:A044  3F 7C     
       04:A046  9F F3     
       04:A048  FC EF     
       04:A04A  82 FF     
       04:A04C  01 FF     
       04:A04E  0C FC     
  552  04:A050  04 F8             dw $f804,$f838,$f07c,$f17c,$f17c,$f87c,$f838,$fc01
       04:A052  38 F8     
       04:A054  7C F0     
       04:A056  7C F1     
       04:A058  7C F1     
       04:A05A  7C F8     
       04:A05C  38 F8     
       04:A05E  01 FC     
  553  04:A060  01 08             dw $0801,$c000,$8000,$0000,$0000,$0000,$0000,$000c
       04:A062  00 C0     
       04:A064  00 80     
       04:A066  00 00     
       04:A068  00 00     
       04:A06A  00 00     
       04:A06C  00 00     
       04:A06E  0C 00     
  554  04:A070  04 00             dw $0004,$0038,$007c,$017c,$017c,$007c,$0038,$0000
       04:A072  38 00     
       04:A074  7C 00     
       04:A076  7C 01     
       04:A078  7C 01     
       04:A07A  7C 00     
       04:A07C  38 00     
       04:A07E  00 00     
  555  04:A080  80 02             dw $0280,$8700,$4704,$2760,$ff00,$97c0,$da7c,$5b81
       04:A082  00 87     
       04:A084  04 47     
       04:A086  60 27     
       04:A088  00 FF     
       04:A08A  C0 97     
       04:A08C  7C DA     
       04:A08E  81 5B     
  556  04:A090  FF 4D             dw $4dff,$ae7c,$af98,$aa78,$4d80,$533e,$5a63,$92dd
       04:A092  7C AE     
       04:A094  98 AF     
       04:A096  78 AA     
       04:A098  80 4D     
       04:A09A  3E 53     
       04:A09C  63 5A     
       04:A09E  DD 92     
  557  04:A0A0  80 04             dw $0480,$8900,$4984,$e984,$fde0,$fbf0,$3c7c,$3c00
       04:A0A2  00 89     
       04:A0A4  84 49     
       04:A0A6  84 E9     
       04:A0A8  E0 FD     
       04:A0AA  F0 FB     
       04:A0AC  7C 3C     
       04:A0AE  00 3C     
  558  04:A0B0  00 1E             dw $1e00,$9f83,$9ffc,$9b86,$3e01,$343e,$3c7f,$7ce3
       04:A0B2  83 9F     
       04:A0B4  FC 9F     
       04:A0B6  86 9B     
       04:A0B8  01 3E     
       04:A0BA  3E 34     
       04:A0BC  7F 3C     
       04:A0BE  E3 7C     
  559  04:A0C0  80 00             dw $0080,$8100,$c184,$e1e4,$01f8,$70f0,$f0fc,$f000
       04:A0C2  00 81     
       04:A0C4  84 C1     
       04:A0C6  E4 E1     
       04:A0C8  F8 01     
       04:A0CA  F0 70     
       04:A0CC  FC F0     
       04:A0CE  00 F0     
  560  04:A0D0  40 F8             dw $f840,$7800,$7878,$79fe,$fbff,$f7c1,$f780,$ff00
       04:A0D2  00 78     
       04:A0D4  78 78     
       04:A0D6  FE 79     
       04:A0D8  FF FB     
       04:A0DA  C1 F7     
       04:A0DC  80 F7     
       04:A0DE  00 FF     
  561  04:A0E0  00 06             dw $0600,$0e08,$0e00,$0e00,$0201,$0c01,$0f03,$0fff
       04:A0E2  08 0E     
       04:A0E4  00 0E     
       04:A0E6  00 0E     
       04:A0E8  01 02     
       04:A0EA  01 0C     
       04:A0EC  03 0F     
       04:A0EE  FF 0F     
  562  04:A0F0  BF 07             dw $07bf,$07ff,$0584,$0600,$0400,$0800,$0800,$0000
       04:A0F2  FF 07     
       04:A0F4  84 05     
       04:A0F6  00 06     
       04:A0F8  00 04     
       04:A0FA  00 08     
       04:A0FC  00 08     
       04:A0FE  00 00     
  563  04:A100  8C B9             dw $b98c,$9cf3,$470c,$30f0,$0e41,$07f7,$03ec,$0be9
       04:A102  F3 9C     
       04:A104  0C 47     
       04:A106  F0 30     
       04:A108  41 0E     
       04:A10A  F7 07     
       04:A10C  EC 03     
       04:A10E  E9 0B     
  564  04:A110  DB 43             dw $43db,$07d6,$09d4,$0016,$421b,$0209,$180c,$0007
       04:A112  D6 07     
       04:A114  D4 09     
       04:A116  16 00     
       04:A118  1B 42     
       04:A11A  09 02     
       04:A11C  0C 18     
       04:A11E  07 00     
  565  04:A120  FC D1             dw $d1fc,$e0f0,$7803,$3f0e,$0fb9,$0677,$05ef,$086e
       04:A122  F0 E0     
       04:A124  03 78     
       04:A126  0E 3F     
       04:A128  B9 0F     
       04:A12A  77 06     
       04:A12C  EF 05     
       04:A12E  6E 08     
  566  04:A130  5C 43             dw $435c,$2158,$1158,$0018,$421c,$204e,$0c4f,$0087
       04:A132  58 21     
       04:A134  58 11     
       04:A136  18 00     
       04:A138  1C 42     
       04:A13A  4E 20     
       04:A13C  4F 0C     
       04:A13E  87 00     
  567  04:A140  03 EE             dw $ee03,$ff0f,$7fff,$3ffe,$0ff9,$01f7,$060f,$080f
       04:A142  0F FF     
       04:A144  FF 7F     
       04:A146  FE 3F     
       04:A148  F9 0F     
       04:A14A  F7 01     
       04:A14C  0F 06     
       04:A14E  0F 08     
  568  04:A150  1F 03             dw $031f,$071f,$191f,$041f,$001f,$020f,$0c0f,$0007
       04:A152  1F 07     
       04:A154  1F 19     
       04:A156  1F 04     
       04:A158  1F 00     
       04:A15A  0F 02     
       04:A15C  0F 0C     
       04:A15E  07 00     
  569  04:A160  00 00             dw $0000,$0000,$0000,$0001,$0006,$0608,$01f0,$03f0
       04:A162  00 00     
       04:A164  00 00     
       04:A166  01 00     
       04:A168  06 00     
       04:A16A  08 06     
       04:A16C  F0 01     
       04:A16E  F0 03     
  570  04:A170  E0 40             dw $40e0,$20e0,$00e0,$0020,$4020,$2050,$1050,$0088
       04:A172  E0 20     
       04:A174  E0 00     
       04:A176  20 00     
       04:A178  20 40     
       04:A17A  50 20     
       04:A17C  50 10     
       04:A17E  88 00     
  571  04:A180  A2 B4             dw $b4a2,$24a2,$74a2,$0add,$f263,$0d3f,$6786,$f140
       04:A182  A2 24     
       04:A184  A2 74     
       04:A186  DD 0A     
       04:A188  63 F2     
       04:A18A  3F 0D     
       04:A18C  86 67     
       04:A18E  40 F1     
  572  04:A190  E0 19             dw $19e0,$ed38,$ad14,$e900,$1f0a,$d940,$7b21,$1e0c
       04:A192  38 ED     
       04:A194  14 AD     
       04:A196  00 E9     
       04:A198  0A 1F     
       04:A19A  40 D9     
       04:A19C  21 7B     
       04:A19E  0C 1E     
  573  04:A1A0  C1 78             dw $78c1,$e8c1,$f8c1,$04e3,$fc7f,$fe3e,$9f80,$0f78
       04:A1A2  C1 E8     
       04:A1A4  C1 F8     
       04:A1A6  E3 04     
       04:A1A8  7F FC     
       04:A1AA  3E FE     
       04:A1AC  80 9F     
       04:A1AE  78 0F     
  574  04:A1B0  00 07             dw $0700,$e300,$e310,$e700,$0708,$0f41,$8d21,$fe10
       04:A1B2  00 E3     
       04:A1B4  10 E3     
       04:A1B6  00 E7     
       04:A1B8  08 07     
       04:A1BA  41 0F     
       04:A1BC  21 8D     
       04:A1BE  10 FE     
  575  04:A1C0  1C EF             dw $ef1c,$ef1c,$cf1c,$0700,$ff80,$ffc1,$fffe,$ff78
       04:A1C2  1C EF     
       04:A1C4  1C CF     
       04:A1C6  00 07     
       04:A1C8  80 FF     
       04:A1CA  C1 FF     
       04:A1CC  FE FF     
       04:A1CE  78 FF     
  576  04:A1D0  00 FF             dw $ff00,$1f00,$1f00,$1f0c,$f902,$f001,$f001,$f800
       04:A1D2  00 1F     
       04:A1D4  00 1F     
       04:A1D6  0C 1F     
       04:A1D8  02 F9     
       04:A1DA  01 F0     
       04:A1DC  01 F0     
       04:A1DE  00 F8     
  577  04:A1E0  1C 10             dw $101c,$101c,$301c,$f800,$0000,$0000,$0000,$0080
       04:A1E2  1C 10     
       04:A1E4  1C 30     
       04:A1E6  00 F8     
       04:A1E8  00 00     
       04:A1EA  00 00     
       04:A1EC  00 00     
       04:A1EE  80 00     
  578  04:A1F0  E0 00             dw $00e0,$00b8,$0084,$0080,$0088,$0040,$0020,$001e
       04:A1F2  B8 00     
       04:A1F4  84 00     
       04:A1F6  80 00     
       04:A1F8  88 00     
       04:A1FA  40 00     
       04:A1FC  20 00     
       04:A1FE  1E 00     
  579                     
  580  04:A200            spr_pattern3_beam:
  581  04:A200  00 00             dw $0000,$0000,$0000,$0000,$0000,$0578,$157c,$2afe
       04:A202  00 00     
       04:A204  00 00     
       04:A206  00 00     
       04:A208  00 00     
       04:A20A  78 05     
       04:A20C  7C 15     
       04:A20E  FE 2A     
  582  04:A210  FE 2A             dw $2afe,$157c,$0578,$0000,$0000,$0000,$0000,$0000
       04:A212  7C 15     
       04:A214  78 05     
       04:A216  00 00     
       04:A218  00 00     
       04:A21A  00 00     
       04:A21C  00 00     
       04:A21E  00 00     
  583  04:A220  00 00             dw $0000,$0000,$0000,$0000,$0000,$0678,$1982,$3301
       04:A222  00 00     
       04:A224  00 00     
       04:A226  00 00     
       04:A228  00 00     
       04:A22A  78 06     
       04:A22C  82 19     
       04:A22E  01 33     
  584  04:A230  01 33             dw $3301,$1982,$0678,$0000,$0000,$0000,$0000,$0000
       04:A232  82 19     
       04:A234  78 06     
       04:A236  00 00     
       04:A238  00 00     
       04:A23A  00 00     
       04:A23C  00 00     
       04:A23E  00 00     
  585  04:A240  00 00             dw $0000,$0000,$0000,$0000,$0000,$0780,$1e00,$3c00
       04:A242  00 00     
       04:A244  00 00     
       04:A246  00 00     
       04:A248  00 00     
       04:A24A  80 07     
       04:A24C  00 1E     
       04:A24E  00 3C     
  586  04:A250  00 3C             dw $3c00,$1e00,$0780,$0000,$0000,$0000,$0000,$0000
       04:A252  00 1E     
       04:A254  80 07     
       04:A256  00 00     
       04:A258  00 00     
       04:A25A  00 00     
       04:A25C  00 00     
       04:A25E  00 00     
  587  04:A260  00 00             dw $0000,$0000,$0000,$0000,$0000,$0800,$203e,$407f
       04:A262  00 00     
       04:A264  00 00     
       04:A266  00 00     
       04:A268  00 00     
       04:A26A  00 08     
       04:A26C  3E 20     
       04:A26E  7F 40     
  588  04:A270  7F 40             dw $407f,$203e,$0800,$0000,$0000,$0000,$0000,$0000
       04:A272  3E 20     
       04:A274  00 08     
       04:A276  00 00     
       04:A278  00 00     
       04:A27A  00 00     
       04:A27C  00 00     
       04:A27E  00 00     
  589                     
  590  04:A280            spr_pattern3_end:
  591                     
  592           0280      spr_pattern3_size       .equ    spr_pattern3_end-spr_pattern3
  593                     
#[1]   same.asm
   19                             
